
ctarget:     file format elf64-x86-64


Disassembly of section .init:

0000000000400c68 <_init>:
  400c68:	48 83 ec 08          	sub    $0x8,%rsp
  400c6c:	48 8b 05 85 43 20 00 	mov    0x204385(%rip),%rax        # 604ff8 <_DYNAMIC+0x1e0>
  400c73:	48 85 c0             	test   %rax,%rax
  400c76:	74 05                	je     400c7d <_init+0x15>
  400c78:	e8 43 02 00 00       	callq  400ec0 <socket@plt+0x10>
  400c7d:	48 83 c4 08          	add    $0x8,%rsp
  400c81:	c3                   	retq   

Disassembly of section .plt:

0000000000400c90 <strcasecmp@plt-0x10>:
  400c90:	ff 35 72 43 20 00    	pushq  0x204372(%rip)        # 605008 <_GLOBAL_OFFSET_TABLE_+0x8>
  400c96:	ff 25 74 43 20 00    	jmpq   *0x204374(%rip)        # 605010 <_GLOBAL_OFFSET_TABLE_+0x10>
  400c9c:	0f 1f 40 00          	nopl   0x0(%rax)

0000000000400ca0 <strcasecmp@plt>:
  400ca0:	ff 25 72 43 20 00    	jmpq   *0x204372(%rip)        # 605018 <_GLOBAL_OFFSET_TABLE_+0x18>
  400ca6:	68 00 00 00 00       	pushq  $0x0
  400cab:	e9 e0 ff ff ff       	jmpq   400c90 <_init+0x28>

0000000000400cb0 <__errno_location@plt>:
  400cb0:	ff 25 6a 43 20 00    	jmpq   *0x20436a(%rip)        # 605020 <_GLOBAL_OFFSET_TABLE_+0x20>
  400cb6:	68 01 00 00 00       	pushq  $0x1
  400cbb:	e9 d0 ff ff ff       	jmpq   400c90 <_init+0x28>

0000000000400cc0 <srandom@plt>:
  400cc0:	ff 25 62 43 20 00    	jmpq   *0x204362(%rip)        # 605028 <_GLOBAL_OFFSET_TABLE_+0x28>
  400cc6:	68 02 00 00 00       	pushq  $0x2
  400ccb:	e9 c0 ff ff ff       	jmpq   400c90 <_init+0x28>

0000000000400cd0 <strncmp@plt>:
  400cd0:	ff 25 5a 43 20 00    	jmpq   *0x20435a(%rip)        # 605030 <_GLOBAL_OFFSET_TABLE_+0x30>
  400cd6:	68 03 00 00 00       	pushq  $0x3
  400cdb:	e9 b0 ff ff ff       	jmpq   400c90 <_init+0x28>

0000000000400ce0 <strcpy@plt>:
  400ce0:	ff 25 52 43 20 00    	jmpq   *0x204352(%rip)        # 605038 <_GLOBAL_OFFSET_TABLE_+0x38>
  400ce6:	68 04 00 00 00       	pushq  $0x4
  400ceb:	e9 a0 ff ff ff       	jmpq   400c90 <_init+0x28>

0000000000400cf0 <puts@plt>:
  400cf0:	ff 25 4a 43 20 00    	jmpq   *0x20434a(%rip)        # 605040 <_GLOBAL_OFFSET_TABLE_+0x40>
  400cf6:	68 05 00 00 00       	pushq  $0x5
  400cfb:	e9 90 ff ff ff       	jmpq   400c90 <_init+0x28>

0000000000400d00 <write@plt>:
  400d00:	ff 25 42 43 20 00    	jmpq   *0x204342(%rip)        # 605048 <_GLOBAL_OFFSET_TABLE_+0x48>
  400d06:	68 06 00 00 00       	pushq  $0x6
  400d0b:	e9 80 ff ff ff       	jmpq   400c90 <_init+0x28>

0000000000400d10 <__stack_chk_fail@plt>:
  400d10:	ff 25 3a 43 20 00    	jmpq   *0x20433a(%rip)        # 605050 <_GLOBAL_OFFSET_TABLE_+0x50>
  400d16:	68 07 00 00 00       	pushq  $0x7
  400d1b:	e9 70 ff ff ff       	jmpq   400c90 <_init+0x28>

0000000000400d20 <mmap@plt>:
  400d20:	ff 25 32 43 20 00    	jmpq   *0x204332(%rip)        # 605058 <_GLOBAL_OFFSET_TABLE_+0x58>
  400d26:	68 08 00 00 00       	pushq  $0x8
  400d2b:	e9 60 ff ff ff       	jmpq   400c90 <_init+0x28>

0000000000400d30 <memset@plt>:
  400d30:	ff 25 2a 43 20 00    	jmpq   *0x20432a(%rip)        # 605060 <_GLOBAL_OFFSET_TABLE_+0x60>
  400d36:	68 09 00 00 00       	pushq  $0x9
  400d3b:	e9 50 ff ff ff       	jmpq   400c90 <_init+0x28>

0000000000400d40 <alarm@plt>:
  400d40:	ff 25 22 43 20 00    	jmpq   *0x204322(%rip)        # 605068 <_GLOBAL_OFFSET_TABLE_+0x68>
  400d46:	68 0a 00 00 00       	pushq  $0xa
  400d4b:	e9 40 ff ff ff       	jmpq   400c90 <_init+0x28>

0000000000400d50 <close@plt>:
  400d50:	ff 25 1a 43 20 00    	jmpq   *0x20431a(%rip)        # 605070 <_GLOBAL_OFFSET_TABLE_+0x70>
  400d56:	68 0b 00 00 00       	pushq  $0xb
  400d5b:	e9 30 ff ff ff       	jmpq   400c90 <_init+0x28>

0000000000400d60 <read@plt>:
  400d60:	ff 25 12 43 20 00    	jmpq   *0x204312(%rip)        # 605078 <_GLOBAL_OFFSET_TABLE_+0x78>
  400d66:	68 0c 00 00 00       	pushq  $0xc
  400d6b:	e9 20 ff ff ff       	jmpq   400c90 <_init+0x28>

0000000000400d70 <__libc_start_main@plt>:
  400d70:	ff 25 0a 43 20 00    	jmpq   *0x20430a(%rip)        # 605080 <_GLOBAL_OFFSET_TABLE_+0x80>
  400d76:	68 0d 00 00 00       	pushq  $0xd
  400d7b:	e9 10 ff ff ff       	jmpq   400c90 <_init+0x28>

0000000000400d80 <signal@plt>:
  400d80:	ff 25 02 43 20 00    	jmpq   *0x204302(%rip)        # 605088 <_GLOBAL_OFFSET_TABLE_+0x88>
  400d86:	68 0e 00 00 00       	pushq  $0xe
  400d8b:	e9 00 ff ff ff       	jmpq   400c90 <_init+0x28>

0000000000400d90 <gethostbyname@plt>:
  400d90:	ff 25 fa 42 20 00    	jmpq   *0x2042fa(%rip)        # 605090 <_GLOBAL_OFFSET_TABLE_+0x90>
  400d96:	68 0f 00 00 00       	pushq  $0xf
  400d9b:	e9 f0 fe ff ff       	jmpq   400c90 <_init+0x28>

0000000000400da0 <__memmove_chk@plt>:
  400da0:	ff 25 f2 42 20 00    	jmpq   *0x2042f2(%rip)        # 605098 <_GLOBAL_OFFSET_TABLE_+0x98>
  400da6:	68 10 00 00 00       	pushq  $0x10
  400dab:	e9 e0 fe ff ff       	jmpq   400c90 <_init+0x28>

0000000000400db0 <strtol@plt>:
  400db0:	ff 25 ea 42 20 00    	jmpq   *0x2042ea(%rip)        # 6050a0 <_GLOBAL_OFFSET_TABLE_+0xa0>
  400db6:	68 11 00 00 00       	pushq  $0x11
  400dbb:	e9 d0 fe ff ff       	jmpq   400c90 <_init+0x28>

0000000000400dc0 <memcpy@plt>:
  400dc0:	ff 25 e2 42 20 00    	jmpq   *0x2042e2(%rip)        # 6050a8 <_GLOBAL_OFFSET_TABLE_+0xa8>
  400dc6:	68 12 00 00 00       	pushq  $0x12
  400dcb:	e9 c0 fe ff ff       	jmpq   400c90 <_init+0x28>

0000000000400dd0 <time@plt>:
  400dd0:	ff 25 da 42 20 00    	jmpq   *0x2042da(%rip)        # 6050b0 <_GLOBAL_OFFSET_TABLE_+0xb0>
  400dd6:	68 13 00 00 00       	pushq  $0x13
  400ddb:	e9 b0 fe ff ff       	jmpq   400c90 <_init+0x28>

0000000000400de0 <random@plt>:
  400de0:	ff 25 d2 42 20 00    	jmpq   *0x2042d2(%rip)        # 6050b8 <_GLOBAL_OFFSET_TABLE_+0xb8>
  400de6:	68 14 00 00 00       	pushq  $0x14
  400deb:	e9 a0 fe ff ff       	jmpq   400c90 <_init+0x28>

0000000000400df0 <_IO_getc@plt>:
  400df0:	ff 25 ca 42 20 00    	jmpq   *0x2042ca(%rip)        # 6050c0 <_GLOBAL_OFFSET_TABLE_+0xc0>
  400df6:	68 15 00 00 00       	pushq  $0x15
  400dfb:	e9 90 fe ff ff       	jmpq   400c90 <_init+0x28>

0000000000400e00 <__isoc99_sscanf@plt>:
  400e00:	ff 25 c2 42 20 00    	jmpq   *0x2042c2(%rip)        # 6050c8 <_GLOBAL_OFFSET_TABLE_+0xc8>
  400e06:	68 16 00 00 00       	pushq  $0x16
  400e0b:	e9 80 fe ff ff       	jmpq   400c90 <_init+0x28>

0000000000400e10 <munmap@plt>:
  400e10:	ff 25 ba 42 20 00    	jmpq   *0x2042ba(%rip)        # 6050d0 <_GLOBAL_OFFSET_TABLE_+0xd0>
  400e16:	68 17 00 00 00       	pushq  $0x17
  400e1b:	e9 70 fe ff ff       	jmpq   400c90 <_init+0x28>

0000000000400e20 <__printf_chk@plt>:
  400e20:	ff 25 b2 42 20 00    	jmpq   *0x2042b2(%rip)        # 6050d8 <_GLOBAL_OFFSET_TABLE_+0xd8>
  400e26:	68 18 00 00 00       	pushq  $0x18
  400e2b:	e9 60 fe ff ff       	jmpq   400c90 <_init+0x28>

0000000000400e30 <fopen@plt>:
  400e30:	ff 25 aa 42 20 00    	jmpq   *0x2042aa(%rip)        # 6050e0 <_GLOBAL_OFFSET_TABLE_+0xe0>
  400e36:	68 19 00 00 00       	pushq  $0x19
  400e3b:	e9 50 fe ff ff       	jmpq   400c90 <_init+0x28>

0000000000400e40 <getopt@plt>:
  400e40:	ff 25 a2 42 20 00    	jmpq   *0x2042a2(%rip)        # 6050e8 <_GLOBAL_OFFSET_TABLE_+0xe8>
  400e46:	68 1a 00 00 00       	pushq  $0x1a
  400e4b:	e9 40 fe ff ff       	jmpq   400c90 <_init+0x28>

0000000000400e50 <strtoul@plt>:
  400e50:	ff 25 9a 42 20 00    	jmpq   *0x20429a(%rip)        # 6050f0 <_GLOBAL_OFFSET_TABLE_+0xf0>
  400e56:	68 1b 00 00 00       	pushq  $0x1b
  400e5b:	e9 30 fe ff ff       	jmpq   400c90 <_init+0x28>

0000000000400e60 <gethostname@plt>:
  400e60:	ff 25 92 42 20 00    	jmpq   *0x204292(%rip)        # 6050f8 <_GLOBAL_OFFSET_TABLE_+0xf8>
  400e66:	68 1c 00 00 00       	pushq  $0x1c
  400e6b:	e9 20 fe ff ff       	jmpq   400c90 <_init+0x28>

0000000000400e70 <exit@plt>:
  400e70:	ff 25 8a 42 20 00    	jmpq   *0x20428a(%rip)        # 605100 <_GLOBAL_OFFSET_TABLE_+0x100>
  400e76:	68 1d 00 00 00       	pushq  $0x1d
  400e7b:	e9 10 fe ff ff       	jmpq   400c90 <_init+0x28>

0000000000400e80 <connect@plt>:
  400e80:	ff 25 82 42 20 00    	jmpq   *0x204282(%rip)        # 605108 <_GLOBAL_OFFSET_TABLE_+0x108>
  400e86:	68 1e 00 00 00       	pushq  $0x1e
  400e8b:	e9 00 fe ff ff       	jmpq   400c90 <_init+0x28>

0000000000400e90 <__fprintf_chk@plt>:
  400e90:	ff 25 7a 42 20 00    	jmpq   *0x20427a(%rip)        # 605110 <_GLOBAL_OFFSET_TABLE_+0x110>
  400e96:	68 1f 00 00 00       	pushq  $0x1f
  400e9b:	e9 f0 fd ff ff       	jmpq   400c90 <_init+0x28>

0000000000400ea0 <__sprintf_chk@plt>:
  400ea0:	ff 25 72 42 20 00    	jmpq   *0x204272(%rip)        # 605118 <_GLOBAL_OFFSET_TABLE_+0x118>
  400ea6:	68 20 00 00 00       	pushq  $0x20
  400eab:	e9 e0 fd ff ff       	jmpq   400c90 <_init+0x28>

0000000000400eb0 <socket@plt>:
  400eb0:	ff 25 6a 42 20 00    	jmpq   *0x20426a(%rip)        # 605120 <_GLOBAL_OFFSET_TABLE_+0x120>
  400eb6:	68 21 00 00 00       	pushq  $0x21
  400ebb:	e9 d0 fd ff ff       	jmpq   400c90 <_init+0x28>

Disassembly of section .plt.got:

0000000000400ec0 <.plt.got>:
  400ec0:	ff 25 32 41 20 00    	jmpq   *0x204132(%rip)        # 604ff8 <_DYNAMIC+0x1e0>
  400ec6:	66 90                	xchg   %ax,%ax

Disassembly of section .text:

0000000000400ed0 <_start>:
  400ed0:	31 ed                	xor    %ebp,%ebp
  400ed2:	49 89 d1             	mov    %rdx,%r9
  400ed5:	5e                   	pop    %rsi
  400ed6:	48 89 e2             	mov    %rsp,%rdx
  400ed9:	48 83 e4 f0          	and    $0xfffffffffffffff0,%rsp
  400edd:	50                   	push   %rax
  400ede:	54                   	push   %rsp
  400edf:	49 c7 c0 00 2f 40 00 	mov    $0x402f00,%r8
  400ee6:	48 c7 c1 90 2e 40 00 	mov    $0x402e90,%rcx
  400eed:	48 c7 c7 d5 11 40 00 	mov    $0x4011d5,%rdi
  400ef4:	e8 77 fe ff ff       	callq  400d70 <__libc_start_main@plt>
  400ef9:	f4                   	hlt    
  400efa:	66 0f 1f 44 00 00    	nopw   0x0(%rax,%rax,1)

0000000000400f00 <deregister_tm_clones>:
  400f00:	b8 b7 54 60 00       	mov    $0x6054b7,%eax
  400f05:	55                   	push   %rbp
  400f06:	48 2d b0 54 60 00    	sub    $0x6054b0,%rax
  400f0c:	48 83 f8 0e          	cmp    $0xe,%rax
  400f10:	48 89 e5             	mov    %rsp,%rbp
  400f13:	76 1b                	jbe    400f30 <deregister_tm_clones+0x30>
  400f15:	b8 00 00 00 00       	mov    $0x0,%eax
  400f1a:	48 85 c0             	test   %rax,%rax
  400f1d:	74 11                	je     400f30 <deregister_tm_clones+0x30>
  400f1f:	5d                   	pop    %rbp
  400f20:	bf b0 54 60 00       	mov    $0x6054b0,%edi
  400f25:	ff e0                	jmpq   *%rax
  400f27:	66 0f 1f 84 00 00 00 	nopw   0x0(%rax,%rax,1)
  400f2e:	00 00 
  400f30:	5d                   	pop    %rbp
  400f31:	c3                   	retq   
  400f32:	0f 1f 40 00          	nopl   0x0(%rax)
  400f36:	66 2e 0f 1f 84 00 00 	nopw   %cs:0x0(%rax,%rax,1)
  400f3d:	00 00 00 

0000000000400f40 <register_tm_clones>:
  400f40:	be b0 54 60 00       	mov    $0x6054b0,%esi
  400f45:	55                   	push   %rbp
  400f46:	48 81 ee b0 54 60 00 	sub    $0x6054b0,%rsi
  400f4d:	48 c1 fe 03          	sar    $0x3,%rsi
  400f51:	48 89 e5             	mov    %rsp,%rbp
  400f54:	48 89 f0             	mov    %rsi,%rax
  400f57:	48 c1 e8 3f          	shr    $0x3f,%rax
  400f5b:	48 01 c6             	add    %rax,%rsi
  400f5e:	48 d1 fe             	sar    %rsi
  400f61:	74 15                	je     400f78 <register_tm_clones+0x38>
  400f63:	b8 00 00 00 00       	mov    $0x0,%eax
  400f68:	48 85 c0             	test   %rax,%rax
  400f6b:	74 0b                	je     400f78 <register_tm_clones+0x38>
  400f6d:	5d                   	pop    %rbp
  400f6e:	bf b0 54 60 00       	mov    $0x6054b0,%edi
  400f73:	ff e0                	jmpq   *%rax
  400f75:	0f 1f 00             	nopl   (%rax)
  400f78:	5d                   	pop    %rbp
  400f79:	c3                   	retq   
  400f7a:	66 0f 1f 44 00 00    	nopw   0x0(%rax,%rax,1)

0000000000400f80 <__do_global_dtors_aux>:
  400f80:	80 3d 61 45 20 00 00 	cmpb   $0x0,0x204561(%rip)        # 6054e8 <completed.7594>
  400f87:	75 11                	jne    400f9a <__do_global_dtors_aux+0x1a>
  400f89:	55                   	push   %rbp
  400f8a:	48 89 e5             	mov    %rsp,%rbp
  400f8d:	e8 6e ff ff ff       	callq  400f00 <deregister_tm_clones>
  400f92:	5d                   	pop    %rbp
  400f93:	c6 05 4e 45 20 00 01 	movb   $0x1,0x20454e(%rip)        # 6054e8 <completed.7594>
  400f9a:	f3 c3                	repz retq 
  400f9c:	0f 1f 40 00          	nopl   0x0(%rax)

0000000000400fa0 <frame_dummy>:
  400fa0:	bf 10 4e 60 00       	mov    $0x604e10,%edi
  400fa5:	48 83 3f 00          	cmpq   $0x0,(%rdi)
  400fa9:	75 05                	jne    400fb0 <frame_dummy+0x10>
  400fab:	eb 93                	jmp    400f40 <register_tm_clones>
  400fad:	0f 1f 00             	nopl   (%rax)
  400fb0:	b8 00 00 00 00       	mov    $0x0,%eax
  400fb5:	48 85 c0             	test   %rax,%rax
  400fb8:	74 f1                	je     400fab <frame_dummy+0xb>
  400fba:	55                   	push   %rbp
  400fbb:	48 89 e5             	mov    %rsp,%rbp
  400fbe:	ff d0                	callq  *%rax
  400fc0:	5d                   	pop    %rbp
  400fc1:	e9 7a ff ff ff       	jmpq   400f40 <register_tm_clones>

0000000000400fc6 <usage>:
  400fc6:	48 83 ec 08          	sub    $0x8,%rsp
  400fca:	48 89 fa             	mov    %rdi,%rdx
  400fcd:	83 3d 54 45 20 00 00 	cmpl   $0x0,0x204554(%rip)        # 605528 <is_checker>
  400fd4:	74 3e                	je     401014 <usage+0x4e>
  400fd6:	be 18 2f 40 00       	mov    $0x402f18,%esi
  400fdb:	bf 01 00 00 00       	mov    $0x1,%edi
  400fe0:	b8 00 00 00 00       	mov    $0x0,%eax
  400fe5:	e8 36 fe ff ff       	callq  400e20 <__printf_chk@plt>
  400fea:	bf 50 2f 40 00       	mov    $0x402f50,%edi
  400fef:	e8 fc fc ff ff       	callq  400cf0 <puts@plt>
  400ff4:	bf c8 30 40 00       	mov    $0x4030c8,%edi
  400ff9:	e8 f2 fc ff ff       	callq  400cf0 <puts@plt>
  400ffe:	bf 78 2f 40 00       	mov    $0x402f78,%edi
  401003:	e8 e8 fc ff ff       	callq  400cf0 <puts@plt>
  401008:	bf e2 30 40 00       	mov    $0x4030e2,%edi
  40100d:	e8 de fc ff ff       	callq  400cf0 <puts@plt>
  401012:	eb 32                	jmp    401046 <usage+0x80>
  401014:	be fe 30 40 00       	mov    $0x4030fe,%esi
  401019:	bf 01 00 00 00       	mov    $0x1,%edi
  40101e:	b8 00 00 00 00       	mov    $0x0,%eax
  401023:	e8 f8 fd ff ff       	callq  400e20 <__printf_chk@plt>
  401028:	bf a0 2f 40 00       	mov    $0x402fa0,%edi
  40102d:	e8 be fc ff ff       	callq  400cf0 <puts@plt>
  401032:	bf c8 2f 40 00       	mov    $0x402fc8,%edi
  401037:	e8 b4 fc ff ff       	callq  400cf0 <puts@plt>
  40103c:	bf 1c 31 40 00       	mov    $0x40311c,%edi
  401041:	e8 aa fc ff ff       	callq  400cf0 <puts@plt>
  401046:	bf 00 00 00 00       	mov    $0x0,%edi
  40104b:	e8 20 fe ff ff       	callq  400e70 <exit@plt>

0000000000401050 <initialize_target>:
  401050:	55                   	push   %rbp
  401051:	53                   	push   %rbx
  401052:	48 81 ec 18 21 00 00 	sub    $0x2118,%rsp
  401059:	89 f5                	mov    %esi,%ebp
  40105b:	64 48 8b 04 25 28 00 	mov    %fs:0x28,%rax
  401062:	00 00 
  401064:	48 89 84 24 08 21 00 	mov    %rax,0x2108(%rsp)
  40106b:	00 
  40106c:	31 c0                	xor    %eax,%eax
  40106e:	89 3d a4 44 20 00    	mov    %edi,0x2044a4(%rip)        # 605518 <check_level>
  401074:	8b 3d ee 40 20 00    	mov    0x2040ee(%rip),%edi        # 605168 <target_id>
  40107a:	e8 e9 1d 00 00       	callq  402e68 <gencookie>
  40107f:	89 05 9f 44 20 00    	mov    %eax,0x20449f(%rip)        # 605524 <cookie>
  401085:	89 c7                	mov    %eax,%edi
  401087:	e8 dc 1d 00 00       	callq  402e68 <gencookie>
  40108c:	89 05 8e 44 20 00    	mov    %eax,0x20448e(%rip)        # 605520 <authkey>
  401092:	8b 05 d0 40 20 00    	mov    0x2040d0(%rip),%eax        # 605168 <target_id>
  401098:	8d 78 01             	lea    0x1(%rax),%edi
  40109b:	e8 20 fc ff ff       	callq  400cc0 <srandom@plt>
  4010a0:	e8 3b fd ff ff       	callq  400de0 <random@plt>
  4010a5:	89 c7                	mov    %eax,%edi
  4010a7:	e8 03 03 00 00       	callq  4013af <scramble>
  4010ac:	89 c3                	mov    %eax,%ebx
  4010ae:	85 ed                	test   %ebp,%ebp
  4010b0:	74 18                	je     4010ca <initialize_target+0x7a>
  4010b2:	bf 00 00 00 00       	mov    $0x0,%edi
  4010b7:	e8 14 fd ff ff       	callq  400dd0 <time@plt>
  4010bc:	89 c7                	mov    %eax,%edi
  4010be:	e8 fd fb ff ff       	callq  400cc0 <srandom@plt>
  4010c3:	e8 18 fd ff ff       	callq  400de0 <random@plt>
  4010c8:	eb 05                	jmp    4010cf <initialize_target+0x7f>
  4010ca:	b8 00 00 00 00       	mov    $0x0,%eax
  4010cf:	01 c3                	add    %eax,%ebx
  4010d1:	0f b7 db             	movzwl %bx,%ebx
  4010d4:	8d 04 dd 00 01 00 00 	lea    0x100(,%rbx,8),%eax
  4010db:	89 c0                	mov    %eax,%eax
  4010dd:	48 89 05 bc 43 20 00 	mov    %rax,0x2043bc(%rip)        # 6054a0 <buf_offset>
  4010e4:	c6 05 5d 50 20 00 63 	movb   $0x63,0x20505d(%rip)        # 606148 <target_prefix>
  4010eb:	83 3d b6 43 20 00 00 	cmpl   $0x0,0x2043b6(%rip)        # 6054a8 <notify>
  4010f2:	0f 84 bb 00 00 00    	je     4011b3 <initialize_target+0x163>
  4010f8:	83 3d 29 44 20 00 00 	cmpl   $0x0,0x204429(%rip)        # 605528 <is_checker>
  4010ff:	0f 85 ae 00 00 00    	jne    4011b3 <initialize_target+0x163>
  401105:	be 00 01 00 00       	mov    $0x100,%esi
  40110a:	48 89 e7             	mov    %rsp,%rdi
  40110d:	e8 4e fd ff ff       	callq  400e60 <gethostname@plt>
  401112:	85 c0                	test   %eax,%eax
  401114:	74 25                	je     40113b <initialize_target+0xeb>
  401116:	bf f8 2f 40 00       	mov    $0x402ff8,%edi
  40111b:	e8 d0 fb ff ff       	callq  400cf0 <puts@plt>
  401120:	bf 08 00 00 00       	mov    $0x8,%edi
  401125:	e8 46 fd ff ff       	callq  400e70 <exit@plt>
  40112a:	48 89 e6             	mov    %rsp,%rsi
  40112d:	e8 6e fb ff ff       	callq  400ca0 <strcasecmp@plt>
  401132:	85 c0                	test   %eax,%eax
  401134:	74 21                	je     401157 <initialize_target+0x107>
  401136:	83 c3 01             	add    $0x1,%ebx
  401139:	eb 05                	jmp    401140 <initialize_target+0xf0>
  40113b:	bb 00 00 00 00       	mov    $0x0,%ebx
  401140:	48 63 c3             	movslq %ebx,%rax
  401143:	48 8b 3c c5 80 51 60 	mov    0x605180(,%rax,8),%rdi
  40114a:	00 
  40114b:	48 85 ff             	test   %rdi,%rdi
  40114e:	75 da                	jne    40112a <initialize_target+0xda>
  401150:	b8 00 00 00 00       	mov    $0x0,%eax
  401155:	eb 05                	jmp    40115c <initialize_target+0x10c>
  401157:	b8 01 00 00 00       	mov    $0x1,%eax
  40115c:	85 c0                	test   %eax,%eax
  40115e:	75 1c                	jne    40117c <initialize_target+0x12c>
  401160:	48 89 e2             	mov    %rsp,%rdx
  401163:	be 30 30 40 00       	mov    $0x403030,%esi
  401168:	bf 01 00 00 00       	mov    $0x1,%edi
  40116d:	e8 ae fc ff ff       	callq  400e20 <__printf_chk@plt>
  401172:	bf 08 00 00 00       	mov    $0x8,%edi
  401177:	e8 f4 fc ff ff       	callq  400e70 <exit@plt>
  40117c:	48 8d bc 24 00 01 00 	lea    0x100(%rsp),%rdi
  401183:	00 
  401184:	e8 49 1a 00 00       	callq  402bd2 <init_driver>
  401189:	85 c0                	test   %eax,%eax
  40118b:	79 26                	jns    4011b3 <initialize_target+0x163>
  40118d:	48 8d 94 24 00 01 00 	lea    0x100(%rsp),%rdx
  401194:	00 
  401195:	be 70 30 40 00       	mov    $0x403070,%esi
  40119a:	bf 01 00 00 00       	mov    $0x1,%edi
  40119f:	b8 00 00 00 00       	mov    $0x0,%eax
  4011a4:	e8 77 fc ff ff       	callq  400e20 <__printf_chk@plt>
  4011a9:	bf 08 00 00 00       	mov    $0x8,%edi
  4011ae:	e8 bd fc ff ff       	callq  400e70 <exit@plt>
  4011b3:	48 8b 84 24 08 21 00 	mov    0x2108(%rsp),%rax
  4011ba:	00 
  4011bb:	64 48 33 04 25 28 00 	xor    %fs:0x28,%rax
  4011c2:	00 00 
  4011c4:	74 05                	je     4011cb <initialize_target+0x17b>
  4011c6:	e8 45 fb ff ff       	callq  400d10 <__stack_chk_fail@plt>
  4011cb:	48 81 c4 18 21 00 00 	add    $0x2118,%rsp
  4011d2:	5b                   	pop    %rbx
  4011d3:	5d                   	pop    %rbp
  4011d4:	c3                   	retq   

00000000004011d5 <main>:
  4011d5:	41 56                	push   %r14
  4011d7:	41 55                	push   %r13
  4011d9:	41 54                	push   %r12
  4011db:	55                   	push   %rbp
  4011dc:	53                   	push   %rbx
  4011dd:	41 89 fc             	mov    %edi,%r12d
  4011e0:	48 89 f3             	mov    %rsi,%rbx
  4011e3:	be f2 1e 40 00       	mov    $0x401ef2,%esi
  4011e8:	bf 0b 00 00 00       	mov    $0xb,%edi
  4011ed:	e8 8e fb ff ff       	callq  400d80 <signal@plt>
  4011f2:	be a4 1e 40 00       	mov    $0x401ea4,%esi
  4011f7:	bf 07 00 00 00       	mov    $0x7,%edi
  4011fc:	e8 7f fb ff ff       	callq  400d80 <signal@plt>
  401201:	be 40 1f 40 00       	mov    $0x401f40,%esi
  401206:	bf 04 00 00 00       	mov    $0x4,%edi
  40120b:	e8 70 fb ff ff       	callq  400d80 <signal@plt>
  401210:	83 3d 11 43 20 00 00 	cmpl   $0x0,0x204311(%rip)        # 605528 <is_checker>
  401217:	74 20                	je     401239 <main+0x64>
  401219:	be 8e 1f 40 00       	mov    $0x401f8e,%esi
  40121e:	bf 0e 00 00 00       	mov    $0xe,%edi
  401223:	e8 58 fb ff ff       	callq  400d80 <signal@plt>
  401228:	bf 05 00 00 00       	mov    $0x5,%edi
  40122d:	e8 0e fb ff ff       	callq  400d40 <alarm@plt>
  401232:	bd 3a 31 40 00       	mov    $0x40313a,%ebp
  401237:	eb 05                	jmp    40123e <main+0x69>
  401239:	bd 35 31 40 00       	mov    $0x403135,%ebp
  40123e:	48 8b 05 7b 42 20 00 	mov    0x20427b(%rip),%rax        # 6054c0 <stdin@@GLIBC_2.2.5>
  401245:	48 89 05 c4 42 20 00 	mov    %rax,0x2042c4(%rip)        # 605510 <infile>
  40124c:	41 bd 00 00 00 00    	mov    $0x0,%r13d
  401252:	41 be 00 00 00 00    	mov    $0x0,%r14d
  401258:	e9 c6 00 00 00       	jmpq   401323 <main+0x14e>
  40125d:	83 e8 61             	sub    $0x61,%eax
  401260:	3c 10                	cmp    $0x10,%al
  401262:	0f 87 9c 00 00 00    	ja     401304 <main+0x12f>
  401268:	0f b6 c0             	movzbl %al,%eax
  40126b:	ff 24 c5 80 31 40 00 	jmpq   *0x403180(,%rax,8)
  401272:	48 8b 3b             	mov    (%rbx),%rdi
  401275:	e8 4c fd ff ff       	callq  400fc6 <usage>
  40127a:	be 8d 34 40 00       	mov    $0x40348d,%esi
  40127f:	48 8b 3d 42 42 20 00 	mov    0x204242(%rip),%rdi        # 6054c8 <optarg@@GLIBC_2.2.5>
  401286:	e8 a5 fb ff ff       	callq  400e30 <fopen@plt>
  40128b:	48 89 05 7e 42 20 00 	mov    %rax,0x20427e(%rip)        # 605510 <infile>
  401292:	48 85 c0             	test   %rax,%rax
  401295:	0f 85 88 00 00 00    	jne    401323 <main+0x14e>
  40129b:	48 8b 0d 26 42 20 00 	mov    0x204226(%rip),%rcx        # 6054c8 <optarg@@GLIBC_2.2.5>
  4012a2:	ba 42 31 40 00       	mov    $0x403142,%edx
  4012a7:	be 01 00 00 00       	mov    $0x1,%esi
  4012ac:	48 8b 3d 2d 42 20 00 	mov    0x20422d(%rip),%rdi        # 6054e0 <stderr@@GLIBC_2.2.5>
  4012b3:	e8 d8 fb ff ff       	callq  400e90 <__fprintf_chk@plt>
  4012b8:	b8 01 00 00 00       	mov    $0x1,%eax
  4012bd:	e9 e4 00 00 00       	jmpq   4013a6 <main+0x1d1>
  4012c2:	ba 10 00 00 00       	mov    $0x10,%edx
  4012c7:	be 00 00 00 00       	mov    $0x0,%esi
  4012cc:	48 8b 3d f5 41 20 00 	mov    0x2041f5(%rip),%rdi        # 6054c8 <optarg@@GLIBC_2.2.5>
  4012d3:	e8 78 fb ff ff       	callq  400e50 <strtoul@plt>
  4012d8:	41 89 c6             	mov    %eax,%r14d
  4012db:	eb 46                	jmp    401323 <main+0x14e>
  4012dd:	ba 0a 00 00 00       	mov    $0xa,%edx
  4012e2:	be 00 00 00 00       	mov    $0x0,%esi
  4012e7:	48 8b 3d da 41 20 00 	mov    0x2041da(%rip),%rdi        # 6054c8 <optarg@@GLIBC_2.2.5>
  4012ee:	e8 bd fa ff ff       	callq  400db0 <strtol@plt>
  4012f3:	41 89 c5             	mov    %eax,%r13d
  4012f6:	eb 2b                	jmp    401323 <main+0x14e>
  4012f8:	c7 05 a6 41 20 00 00 	movl   $0x0,0x2041a6(%rip)        # 6054a8 <notify>
  4012ff:	00 00 00 
  401302:	eb 1f                	jmp    401323 <main+0x14e>
  401304:	0f be d2             	movsbl %dl,%edx
  401307:	be 5f 31 40 00       	mov    $0x40315f,%esi
  40130c:	bf 01 00 00 00       	mov    $0x1,%edi
  401311:	b8 00 00 00 00       	mov    $0x0,%eax
  401316:	e8 05 fb ff ff       	callq  400e20 <__printf_chk@plt>
  40131b:	48 8b 3b             	mov    (%rbx),%rdi
  40131e:	e8 a3 fc ff ff       	callq  400fc6 <usage>
  401323:	48 89 ea             	mov    %rbp,%rdx
  401326:	48 89 de             	mov    %rbx,%rsi
  401329:	44 89 e7             	mov    %r12d,%edi
  40132c:	e8 0f fb ff ff       	callq  400e40 <getopt@plt>
  401331:	89 c2                	mov    %eax,%edx
  401333:	3c ff                	cmp    $0xff,%al
  401335:	0f 85 22 ff ff ff    	jne    40125d <main+0x88>
  40133b:	be 00 00 00 00       	mov    $0x0,%esi
  401340:	44 89 ef             	mov    %r13d,%edi
  401343:	e8 08 fd ff ff       	callq  401050 <initialize_target>
  401348:	83 3d d9 41 20 00 00 	cmpl   $0x0,0x2041d9(%rip)        # 605528 <is_checker>
  40134f:	74 2a                	je     40137b <main+0x1a6>
  401351:	44 3b 35 c8 41 20 00 	cmp    0x2041c8(%rip),%r14d        # 605520 <authkey>
  401358:	74 21                	je     40137b <main+0x1a6>
  40135a:	44 89 f2             	mov    %r14d,%edx
  40135d:	be 98 30 40 00       	mov    $0x403098,%esi
  401362:	bf 01 00 00 00       	mov    $0x1,%edi
  401367:	b8 00 00 00 00       	mov    $0x0,%eax
  40136c:	e8 af fa ff ff       	callq  400e20 <__printf_chk@plt>
  401371:	b8 00 00 00 00       	mov    $0x0,%eax
  401376:	e8 c5 07 00 00       	callq  401b40 <check_fail>
  40137b:	8b 15 a3 41 20 00    	mov    0x2041a3(%rip),%edx        # 605524 <cookie>
  401381:	be 72 31 40 00       	mov    $0x403172,%esi
  401386:	bf 01 00 00 00       	mov    $0x1,%edi
  40138b:	b8 00 00 00 00       	mov    $0x0,%eax
  401390:	e8 8b fa ff ff       	callq  400e20 <__printf_chk@plt>
  401395:	48 8b 3d 04 41 20 00 	mov    0x204104(%rip),%rdi        # 6054a0 <buf_offset>
  40139c:	e8 ed 0c 00 00       	callq  40208e <stable_launch>
  4013a1:	b8 00 00 00 00       	mov    $0x0,%eax
  4013a6:	5b                   	pop    %rbx
  4013a7:	5d                   	pop    %rbp
  4013a8:	41 5c                	pop    %r12
  4013aa:	41 5d                	pop    %r13
  4013ac:	41 5e                	pop    %r14
  4013ae:	c3                   	retq   

00000000004013af <scramble>:
  4013af:	48 83 ec 38          	sub    $0x38,%rsp
  4013b3:	64 48 8b 04 25 28 00 	mov    %fs:0x28,%rax
  4013ba:	00 00 
  4013bc:	48 89 44 24 28       	mov    %rax,0x28(%rsp)
  4013c1:	31 c0                	xor    %eax,%eax
  4013c3:	eb 10                	jmp    4013d5 <scramble+0x26>
  4013c5:	69 d0 75 25 00 00    	imul   $0x2575,%eax,%edx
  4013cb:	01 fa                	add    %edi,%edx
  4013cd:	89 c1                	mov    %eax,%ecx
  4013cf:	89 14 8c             	mov    %edx,(%rsp,%rcx,4)
  4013d2:	83 c0 01             	add    $0x1,%eax
  4013d5:	83 f8 09             	cmp    $0x9,%eax
  4013d8:	76 eb                	jbe    4013c5 <scramble+0x16>
  4013da:	8b 44 24 18          	mov    0x18(%rsp),%eax
  4013de:	69 c0 34 da 00 00    	imul   $0xda34,%eax,%eax
  4013e4:	89 44 24 18          	mov    %eax,0x18(%rsp)
  4013e8:	8b 44 24 20          	mov    0x20(%rsp),%eax
  4013ec:	69 c0 b9 0c 00 00    	imul   $0xcb9,%eax,%eax
  4013f2:	89 44 24 20          	mov    %eax,0x20(%rsp)
  4013f6:	8b 44 24 18          	mov    0x18(%rsp),%eax
  4013fa:	69 c0 f6 7a 00 00    	imul   $0x7af6,%eax,%eax
  401400:	89 44 24 18          	mov    %eax,0x18(%rsp)
  401404:	8b 44 24 18          	mov    0x18(%rsp),%eax
  401408:	69 c0 db 6e 00 00    	imul   $0x6edb,%eax,%eax
  40140e:	89 44 24 18          	mov    %eax,0x18(%rsp)
  401412:	8b 44 24 1c          	mov    0x1c(%rsp),%eax
  401416:	69 c0 4a d7 00 00    	imul   $0xd74a,%eax,%eax
  40141c:	89 44 24 1c          	mov    %eax,0x1c(%rsp)
  401420:	8b 44 24 04          	mov    0x4(%rsp),%eax
  401424:	69 c0 4e 4b 00 00    	imul   $0x4b4e,%eax,%eax
  40142a:	89 44 24 04          	mov    %eax,0x4(%rsp)
  40142e:	8b 44 24 1c          	mov    0x1c(%rsp),%eax
  401432:	69 c0 17 74 00 00    	imul   $0x7417,%eax,%eax
  401438:	89 44 24 1c          	mov    %eax,0x1c(%rsp)
  40143c:	8b 44 24 10          	mov    0x10(%rsp),%eax
  401440:	69 c0 ef c5 00 00    	imul   $0xc5ef,%eax,%eax
  401446:	89 44 24 10          	mov    %eax,0x10(%rsp)
  40144a:	8b 44 24 0c          	mov    0xc(%rsp),%eax
  40144e:	69 c0 97 4d 00 00    	imul   $0x4d97,%eax,%eax
  401454:	89 44 24 0c          	mov    %eax,0xc(%rsp)
  401458:	8b 44 24 14          	mov    0x14(%rsp),%eax
  40145c:	69 c0 85 9d 00 00    	imul   $0x9d85,%eax,%eax
  401462:	89 44 24 14          	mov    %eax,0x14(%rsp)
  401466:	8b 44 24 08          	mov    0x8(%rsp),%eax
  40146a:	69 c0 d3 be 00 00    	imul   $0xbed3,%eax,%eax
  401470:	89 44 24 08          	mov    %eax,0x8(%rsp)
  401474:	8b 44 24 14          	mov    0x14(%rsp),%eax
  401478:	69 c0 da a5 00 00    	imul   $0xa5da,%eax,%eax
  40147e:	89 44 24 14          	mov    %eax,0x14(%rsp)
  401482:	8b 44 24 08          	mov    0x8(%rsp),%eax
  401486:	69 c0 3f 50 00 00    	imul   $0x503f,%eax,%eax
  40148c:	89 44 24 08          	mov    %eax,0x8(%rsp)
  401490:	8b 44 24 18          	mov    0x18(%rsp),%eax
  401494:	69 c0 e2 9c 00 00    	imul   $0x9ce2,%eax,%eax
  40149a:	89 44 24 18          	mov    %eax,0x18(%rsp)
  40149e:	8b 44 24 1c          	mov    0x1c(%rsp),%eax
  4014a2:	69 c0 9a b7 00 00    	imul   $0xb79a,%eax,%eax
  4014a8:	89 44 24 1c          	mov    %eax,0x1c(%rsp)
  4014ac:	8b 44 24 14          	mov    0x14(%rsp),%eax
  4014b0:	69 c0 f3 3b 00 00    	imul   $0x3bf3,%eax,%eax
  4014b6:	89 44 24 14          	mov    %eax,0x14(%rsp)
  4014ba:	8b 44 24 08          	mov    0x8(%rsp),%eax
  4014be:	69 c0 77 d6 00 00    	imul   $0xd677,%eax,%eax
  4014c4:	89 44 24 08          	mov    %eax,0x8(%rsp)
  4014c8:	8b 44 24 18          	mov    0x18(%rsp),%eax
  4014cc:	69 c0 a7 9d 00 00    	imul   $0x9da7,%eax,%eax
  4014d2:	89 44 24 18          	mov    %eax,0x18(%rsp)
  4014d6:	8b 44 24 1c          	mov    0x1c(%rsp),%eax
  4014da:	69 c0 7a 86 00 00    	imul   $0x867a,%eax,%eax
  4014e0:	89 44 24 1c          	mov    %eax,0x1c(%rsp)
  4014e4:	8b 04 24             	mov    (%rsp),%eax
  4014e7:	69 c0 c0 58 00 00    	imul   $0x58c0,%eax,%eax
  4014ed:	89 04 24             	mov    %eax,(%rsp)
  4014f0:	8b 44 24 08          	mov    0x8(%rsp),%eax
  4014f4:	69 c0 2a 44 00 00    	imul   $0x442a,%eax,%eax
  4014fa:	89 44 24 08          	mov    %eax,0x8(%rsp)
  4014fe:	8b 44 24 18          	mov    0x18(%rsp),%eax
  401502:	69 c0 3c ad 00 00    	imul   $0xad3c,%eax,%eax
  401508:	89 44 24 18          	mov    %eax,0x18(%rsp)
  40150c:	8b 44 24 04          	mov    0x4(%rsp),%eax
  401510:	69 c0 b7 bb 00 00    	imul   $0xbbb7,%eax,%eax
  401516:	89 44 24 04          	mov    %eax,0x4(%rsp)
  40151a:	8b 44 24 0c          	mov    0xc(%rsp),%eax
  40151e:	69 c0 c0 ef 00 00    	imul   $0xefc0,%eax,%eax
  401524:	89 44 24 0c          	mov    %eax,0xc(%rsp)
  401528:	8b 44 24 1c          	mov    0x1c(%rsp),%eax
  40152c:	69 c0 61 4a 00 00    	imul   $0x4a61,%eax,%eax
  401532:	89 44 24 1c          	mov    %eax,0x1c(%rsp)
  401536:	8b 44 24 08          	mov    0x8(%rsp),%eax
  40153a:	69 c0 c2 1a 00 00    	imul   $0x1ac2,%eax,%eax
  401540:	89 44 24 08          	mov    %eax,0x8(%rsp)
  401544:	8b 44 24 20          	mov    0x20(%rsp),%eax
  401548:	69 c0 f5 f0 00 00    	imul   $0xf0f5,%eax,%eax
  40154e:	89 44 24 20          	mov    %eax,0x20(%rsp)
  401552:	8b 44 24 0c          	mov    0xc(%rsp),%eax
  401556:	69 c0 be b1 00 00    	imul   $0xb1be,%eax,%eax
  40155c:	89 44 24 0c          	mov    %eax,0xc(%rsp)
  401560:	8b 44 24 18          	mov    0x18(%rsp),%eax
  401564:	69 c0 5c 2f 00 00    	imul   $0x2f5c,%eax,%eax
  40156a:	89 44 24 18          	mov    %eax,0x18(%rsp)
  40156e:	8b 44 24 14          	mov    0x14(%rsp),%eax
  401572:	69 c0 b3 57 00 00    	imul   $0x57b3,%eax,%eax
  401578:	89 44 24 14          	mov    %eax,0x14(%rsp)
  40157c:	8b 44 24 14          	mov    0x14(%rsp),%eax
  401580:	69 c0 30 b4 00 00    	imul   $0xb430,%eax,%eax
  401586:	89 44 24 14          	mov    %eax,0x14(%rsp)
  40158a:	8b 44 24 04          	mov    0x4(%rsp),%eax
  40158e:	69 c0 c6 78 00 00    	imul   $0x78c6,%eax,%eax
  401594:	89 44 24 04          	mov    %eax,0x4(%rsp)
  401598:	8b 44 24 1c          	mov    0x1c(%rsp),%eax
  40159c:	69 c0 53 dc 00 00    	imul   $0xdc53,%eax,%eax
  4015a2:	89 44 24 1c          	mov    %eax,0x1c(%rsp)
  4015a6:	8b 44 24 20          	mov    0x20(%rsp),%eax
  4015aa:	69 c0 15 dc 00 00    	imul   $0xdc15,%eax,%eax
  4015b0:	89 44 24 20          	mov    %eax,0x20(%rsp)
  4015b4:	8b 44 24 10          	mov    0x10(%rsp),%eax
  4015b8:	69 c0 f0 22 00 00    	imul   $0x22f0,%eax,%eax
  4015be:	89 44 24 10          	mov    %eax,0x10(%rsp)
  4015c2:	8b 44 24 04          	mov    0x4(%rsp),%eax
  4015c6:	69 c0 92 c0 00 00    	imul   $0xc092,%eax,%eax
  4015cc:	89 44 24 04          	mov    %eax,0x4(%rsp)
  4015d0:	8b 44 24 08          	mov    0x8(%rsp),%eax
  4015d4:	69 c0 e4 d8 00 00    	imul   $0xd8e4,%eax,%eax
  4015da:	89 44 24 08          	mov    %eax,0x8(%rsp)
  4015de:	8b 44 24 20          	mov    0x20(%rsp),%eax
  4015e2:	69 c0 5d 1f 00 00    	imul   $0x1f5d,%eax,%eax
  4015e8:	89 44 24 20          	mov    %eax,0x20(%rsp)
  4015ec:	8b 44 24 04          	mov    0x4(%rsp),%eax
  4015f0:	69 c0 fa e0 00 00    	imul   $0xe0fa,%eax,%eax
  4015f6:	89 44 24 04          	mov    %eax,0x4(%rsp)
  4015fa:	8b 44 24 04          	mov    0x4(%rsp),%eax
  4015fe:	69 c0 eb 9d 00 00    	imul   $0x9deb,%eax,%eax
  401604:	89 44 24 04          	mov    %eax,0x4(%rsp)
  401608:	8b 44 24 14          	mov    0x14(%rsp),%eax
  40160c:	69 c0 63 9c 00 00    	imul   $0x9c63,%eax,%eax
  401612:	89 44 24 14          	mov    %eax,0x14(%rsp)
  401616:	8b 44 24 08          	mov    0x8(%rsp),%eax
  40161a:	69 c0 8f 34 00 00    	imul   $0x348f,%eax,%eax
  401620:	89 44 24 08          	mov    %eax,0x8(%rsp)
  401624:	8b 44 24 14          	mov    0x14(%rsp),%eax
  401628:	69 c0 49 79 00 00    	imul   $0x7949,%eax,%eax
  40162e:	89 44 24 14          	mov    %eax,0x14(%rsp)
  401632:	8b 44 24 1c          	mov    0x1c(%rsp),%eax
  401636:	69 c0 8d ce 00 00    	imul   $0xce8d,%eax,%eax
  40163c:	89 44 24 1c          	mov    %eax,0x1c(%rsp)
  401640:	8b 44 24 1c          	mov    0x1c(%rsp),%eax
  401644:	69 c0 ee 34 00 00    	imul   $0x34ee,%eax,%eax
  40164a:	89 44 24 1c          	mov    %eax,0x1c(%rsp)
  40164e:	8b 04 24             	mov    (%rsp),%eax
  401651:	69 c0 9c 8f 00 00    	imul   $0x8f9c,%eax,%eax
  401657:	89 04 24             	mov    %eax,(%rsp)
  40165a:	8b 44 24 18          	mov    0x18(%rsp),%eax
  40165e:	69 c0 e8 b9 00 00    	imul   $0xb9e8,%eax,%eax
  401664:	89 44 24 18          	mov    %eax,0x18(%rsp)
  401668:	8b 44 24 0c          	mov    0xc(%rsp),%eax
  40166c:	69 c0 c5 73 00 00    	imul   $0x73c5,%eax,%eax
  401672:	89 44 24 0c          	mov    %eax,0xc(%rsp)
  401676:	8b 44 24 0c          	mov    0xc(%rsp),%eax
  40167a:	69 c0 d0 1e 00 00    	imul   $0x1ed0,%eax,%eax
  401680:	89 44 24 0c          	mov    %eax,0xc(%rsp)
  401684:	8b 44 24 20          	mov    0x20(%rsp),%eax
  401688:	69 c0 09 f9 00 00    	imul   $0xf909,%eax,%eax
  40168e:	89 44 24 20          	mov    %eax,0x20(%rsp)
  401692:	8b 44 24 08          	mov    0x8(%rsp),%eax
  401696:	69 c0 b1 84 00 00    	imul   $0x84b1,%eax,%eax
  40169c:	89 44 24 08          	mov    %eax,0x8(%rsp)
  4016a0:	8b 44 24 14          	mov    0x14(%rsp),%eax
  4016a4:	69 c0 db a8 00 00    	imul   $0xa8db,%eax,%eax
  4016aa:	89 44 24 14          	mov    %eax,0x14(%rsp)
  4016ae:	8b 44 24 20          	mov    0x20(%rsp),%eax
  4016b2:	69 c0 6a 27 00 00    	imul   $0x276a,%eax,%eax
  4016b8:	89 44 24 20          	mov    %eax,0x20(%rsp)
  4016bc:	8b 44 24 08          	mov    0x8(%rsp),%eax
  4016c0:	69 c0 31 f2 00 00    	imul   $0xf231,%eax,%eax
  4016c6:	89 44 24 08          	mov    %eax,0x8(%rsp)
  4016ca:	8b 04 24             	mov    (%rsp),%eax
  4016cd:	69 c0 56 d7 00 00    	imul   $0xd756,%eax,%eax
  4016d3:	89 04 24             	mov    %eax,(%rsp)
  4016d6:	8b 44 24 0c          	mov    0xc(%rsp),%eax
  4016da:	69 c0 bf 33 00 00    	imul   $0x33bf,%eax,%eax
  4016e0:	89 44 24 0c          	mov    %eax,0xc(%rsp)
  4016e4:	8b 44 24 24          	mov    0x24(%rsp),%eax
  4016e8:	69 c0 c9 48 00 00    	imul   $0x48c9,%eax,%eax
  4016ee:	89 44 24 24          	mov    %eax,0x24(%rsp)
  4016f2:	8b 04 24             	mov    (%rsp),%eax
  4016f5:	69 c0 11 01 00 00    	imul   $0x111,%eax,%eax
  4016fb:	89 04 24             	mov    %eax,(%rsp)
  4016fe:	8b 44 24 0c          	mov    0xc(%rsp),%eax
  401702:	69 c0 9c 4e 00 00    	imul   $0x4e9c,%eax,%eax
  401708:	89 44 24 0c          	mov    %eax,0xc(%rsp)
  40170c:	8b 04 24             	mov    (%rsp),%eax
  40170f:	69 c0 b8 6a 00 00    	imul   $0x6ab8,%eax,%eax
  401715:	89 04 24             	mov    %eax,(%rsp)
  401718:	8b 44 24 10          	mov    0x10(%rsp),%eax
  40171c:	69 c0 e0 f5 00 00    	imul   $0xf5e0,%eax,%eax
  401722:	89 44 24 10          	mov    %eax,0x10(%rsp)
  401726:	8b 44 24 18          	mov    0x18(%rsp),%eax
  40172a:	69 c0 a8 6c 00 00    	imul   $0x6ca8,%eax,%eax
  401730:	89 44 24 18          	mov    %eax,0x18(%rsp)
  401734:	8b 44 24 10          	mov    0x10(%rsp),%eax
  401738:	69 c0 b7 02 00 00    	imul   $0x2b7,%eax,%eax
  40173e:	89 44 24 10          	mov    %eax,0x10(%rsp)
  401742:	8b 44 24 14          	mov    0x14(%rsp),%eax
  401746:	69 c0 03 46 00 00    	imul   $0x4603,%eax,%eax
  40174c:	89 44 24 14          	mov    %eax,0x14(%rsp)
  401750:	8b 44 24 14          	mov    0x14(%rsp),%eax
  401754:	69 c0 49 30 00 00    	imul   $0x3049,%eax,%eax
  40175a:	89 44 24 14          	mov    %eax,0x14(%rsp)
  40175e:	8b 44 24 18          	mov    0x18(%rsp),%eax
  401762:	69 c0 47 63 00 00    	imul   $0x6347,%eax,%eax
  401768:	89 44 24 18          	mov    %eax,0x18(%rsp)
  40176c:	8b 44 24 1c          	mov    0x1c(%rsp),%eax
  401770:	69 c0 a9 f8 00 00    	imul   $0xf8a9,%eax,%eax
  401776:	89 44 24 1c          	mov    %eax,0x1c(%rsp)
  40177a:	8b 44 24 1c          	mov    0x1c(%rsp),%eax
  40177e:	69 c0 8f 12 00 00    	imul   $0x128f,%eax,%eax
  401784:	89 44 24 1c          	mov    %eax,0x1c(%rsp)
  401788:	8b 44 24 24          	mov    0x24(%rsp),%eax
  40178c:	69 c0 5b d4 00 00    	imul   $0xd45b,%eax,%eax
  401792:	89 44 24 24          	mov    %eax,0x24(%rsp)
  401796:	8b 44 24 24          	mov    0x24(%rsp),%eax
  40179a:	69 c0 78 28 00 00    	imul   $0x2878,%eax,%eax
  4017a0:	89 44 24 24          	mov    %eax,0x24(%rsp)
  4017a4:	8b 44 24 14          	mov    0x14(%rsp),%eax
  4017a8:	69 c0 dd 94 00 00    	imul   $0x94dd,%eax,%eax
  4017ae:	89 44 24 14          	mov    %eax,0x14(%rsp)
  4017b2:	8b 44 24 1c          	mov    0x1c(%rsp),%eax
  4017b6:	69 c0 6a 1f 00 00    	imul   $0x1f6a,%eax,%eax
  4017bc:	89 44 24 1c          	mov    %eax,0x1c(%rsp)
  4017c0:	8b 04 24             	mov    (%rsp),%eax
  4017c3:	69 c0 86 c4 00 00    	imul   $0xc486,%eax,%eax
  4017c9:	89 04 24             	mov    %eax,(%rsp)
  4017cc:	8b 44 24 04          	mov    0x4(%rsp),%eax
  4017d0:	69 c0 b9 9f 00 00    	imul   $0x9fb9,%eax,%eax
  4017d6:	89 44 24 04          	mov    %eax,0x4(%rsp)
  4017da:	8b 44 24 24          	mov    0x24(%rsp),%eax
  4017de:	69 c0 1b f0 00 00    	imul   $0xf01b,%eax,%eax
  4017e4:	89 44 24 24          	mov    %eax,0x24(%rsp)
  4017e8:	8b 44 24 14          	mov    0x14(%rsp),%eax
  4017ec:	69 c0 ad 96 00 00    	imul   $0x96ad,%eax,%eax
  4017f2:	89 44 24 14          	mov    %eax,0x14(%rsp)
  4017f6:	8b 44 24 10          	mov    0x10(%rsp),%eax
  4017fa:	69 c0 c6 04 00 00    	imul   $0x4c6,%eax,%eax
  401800:	89 44 24 10          	mov    %eax,0x10(%rsp)
  401804:	8b 44 24 1c          	mov    0x1c(%rsp),%eax
  401808:	69 c0 c3 95 00 00    	imul   $0x95c3,%eax,%eax
  40180e:	89 44 24 1c          	mov    %eax,0x1c(%rsp)
  401812:	8b 44 24 10          	mov    0x10(%rsp),%eax
  401816:	69 c0 c4 e3 00 00    	imul   $0xe3c4,%eax,%eax
  40181c:	89 44 24 10          	mov    %eax,0x10(%rsp)
  401820:	8b 44 24 24          	mov    0x24(%rsp),%eax
  401824:	69 c0 04 29 00 00    	imul   $0x2904,%eax,%eax
  40182a:	89 44 24 24          	mov    %eax,0x24(%rsp)
  40182e:	8b 44 24 24          	mov    0x24(%rsp),%eax
  401832:	69 c0 d3 1a 00 00    	imul   $0x1ad3,%eax,%eax
  401838:	89 44 24 24          	mov    %eax,0x24(%rsp)
  40183c:	8b 04 24             	mov    (%rsp),%eax
  40183f:	69 c0 07 c9 00 00    	imul   $0xc907,%eax,%eax
  401845:	89 04 24             	mov    %eax,(%rsp)
  401848:	8b 44 24 20          	mov    0x20(%rsp),%eax
  40184c:	69 c0 6e 98 00 00    	imul   $0x986e,%eax,%eax
  401852:	89 44 24 20          	mov    %eax,0x20(%rsp)
  401856:	8b 44 24 10          	mov    0x10(%rsp),%eax
  40185a:	69 c0 90 33 00 00    	imul   $0x3390,%eax,%eax
  401860:	89 44 24 10          	mov    %eax,0x10(%rsp)
  401864:	8b 04 24             	mov    (%rsp),%eax
  401867:	69 c0 57 e0 00 00    	imul   $0xe057,%eax,%eax
  40186d:	89 04 24             	mov    %eax,(%rsp)
  401870:	8b 44 24 04          	mov    0x4(%rsp),%eax
  401874:	69 c0 7b 18 00 00    	imul   $0x187b,%eax,%eax
  40187a:	89 44 24 04          	mov    %eax,0x4(%rsp)
  40187e:	8b 44 24 20          	mov    0x20(%rsp),%eax
  401882:	69 c0 3f b8 00 00    	imul   $0xb83f,%eax,%eax
  401888:	89 44 24 20          	mov    %eax,0x20(%rsp)
  40188c:	8b 44 24 08          	mov    0x8(%rsp),%eax
  401890:	69 c0 dc 52 00 00    	imul   $0x52dc,%eax,%eax
  401896:	89 44 24 08          	mov    %eax,0x8(%rsp)
  40189a:	8b 44 24 1c          	mov    0x1c(%rsp),%eax
  40189e:	69 c0 62 58 00 00    	imul   $0x5862,%eax,%eax
  4018a4:	89 44 24 1c          	mov    %eax,0x1c(%rsp)
  4018a8:	8b 44 24 0c          	mov    0xc(%rsp),%eax
  4018ac:	69 c0 e9 8f 00 00    	imul   $0x8fe9,%eax,%eax
  4018b2:	89 44 24 0c          	mov    %eax,0xc(%rsp)
  4018b6:	ba 00 00 00 00       	mov    $0x0,%edx
  4018bb:	b8 00 00 00 00       	mov    $0x0,%eax
  4018c0:	eb 0a                	jmp    4018cc <scramble+0x51d>
  4018c2:	89 d1                	mov    %edx,%ecx
  4018c4:	8b 0c 8c             	mov    (%rsp,%rcx,4),%ecx
  4018c7:	01 c8                	add    %ecx,%eax
  4018c9:	83 c2 01             	add    $0x1,%edx
  4018cc:	83 fa 09             	cmp    $0x9,%edx
  4018cf:	76 f1                	jbe    4018c2 <scramble+0x513>
  4018d1:	48 8b 74 24 28       	mov    0x28(%rsp),%rsi
  4018d6:	64 48 33 34 25 28 00 	xor    %fs:0x28,%rsi
  4018dd:	00 00 
  4018df:	74 05                	je     4018e6 <scramble+0x537>
  4018e1:	e8 2a f4 ff ff       	callq  400d10 <__stack_chk_fail@plt>
  4018e6:	48 83 c4 38          	add    $0x38,%rsp
  4018ea:	c3                   	retq   

00000000004018eb <getbuf>:
  4018eb:	48 83 ec 28          	sub    $0x28,%rsp
  4018ef:	48 89 e7             	mov    %rsp,%rdi
  4018f2:	e8 7e 02 00 00       	callq  401b75 <Gets>
  4018f7:	b8 01 00 00 00       	mov    $0x1,%eax
  4018fc:	48 83 c4 28          	add    $0x28,%rsp
  401900:	c3                   	retq   

0000000000401901 <touch1>:
  401901:	48 83 ec 08          	sub    $0x8,%rsp
  401905:	c7 05 0d 3c 20 00 01 	movl   $0x1,0x203c0d(%rip)        # 60551c <vlevel>
  40190c:	00 00 00 
  40190f:	bf e6 32 40 00       	mov    $0x4032e6,%edi
  401914:	e8 d7 f3 ff ff       	callq  400cf0 <puts@plt>
  401919:	bf 01 00 00 00       	mov    $0x1,%edi
  40191e:	e8 97 04 00 00       	callq  401dba <validate>
  401923:	bf 00 00 00 00       	mov    $0x0,%edi
  401928:	e8 43 f5 ff ff       	callq  400e70 <exit@plt>

000000000040192d <touch2>:
  40192d:	48 83 ec 08          	sub    $0x8,%rsp
  401931:	89 fa                	mov    %edi,%edx
  401933:	c7 05 df 3b 20 00 02 	movl   $0x2,0x203bdf(%rip)        # 60551c <vlevel>
  40193a:	00 00 00 
  40193d:	39 3d e1 3b 20 00    	cmp    %edi,0x203be1(%rip)        # 605524 <cookie>
  401943:	75 20                	jne    401965 <touch2+0x38>
  401945:	be 08 33 40 00       	mov    $0x403308,%esi
  40194a:	bf 01 00 00 00       	mov    $0x1,%edi
  40194f:	b8 00 00 00 00       	mov    $0x0,%eax
  401954:	e8 c7 f4 ff ff       	callq  400e20 <__printf_chk@plt>
  401959:	bf 02 00 00 00       	mov    $0x2,%edi
  40195e:	e8 57 04 00 00       	callq  401dba <validate>
  401963:	eb 1e                	jmp    401983 <touch2+0x56>
  401965:	be 30 33 40 00       	mov    $0x403330,%esi
  40196a:	bf 01 00 00 00       	mov    $0x1,%edi
  40196f:	b8 00 00 00 00       	mov    $0x0,%eax
  401974:	e8 a7 f4 ff ff       	callq  400e20 <__printf_chk@plt>
  401979:	bf 02 00 00 00       	mov    $0x2,%edi
  40197e:	e8 f9 04 00 00       	callq  401e7c <fail>
  401983:	bf 00 00 00 00       	mov    $0x0,%edi
  401988:	e8 e3 f4 ff ff       	callq  400e70 <exit@plt>

000000000040198d <hexmatch>:
  40198d:	41 54                	push   %r12
  40198f:	55                   	push   %rbp
  401990:	53                   	push   %rbx
  401991:	48 83 c4 80          	add    $0xffffffffffffff80,%rsp
  401995:	89 fd                	mov    %edi,%ebp
  401997:	48 89 f3             	mov    %rsi,%rbx
  40199a:	64 48 8b 04 25 28 00 	mov    %fs:0x28,%rax
  4019a1:	00 00 
  4019a3:	48 89 44 24 78       	mov    %rax,0x78(%rsp)
  4019a8:	31 c0                	xor    %eax,%eax
  4019aa:	e8 31 f4 ff ff       	callq  400de0 <random@plt>
  4019af:	48 89 c1             	mov    %rax,%rcx
  4019b2:	48 ba 0b d7 a3 70 3d 	movabs $0xa3d70a3d70a3d70b,%rdx
  4019b9:	0a d7 a3 
  4019bc:	48 f7 ea             	imul   %rdx
  4019bf:	48 01 ca             	add    %rcx,%rdx
  4019c2:	48 c1 fa 06          	sar    $0x6,%rdx
  4019c6:	48 89 c8             	mov    %rcx,%rax
  4019c9:	48 c1 f8 3f          	sar    $0x3f,%rax
  4019cd:	48 29 c2             	sub    %rax,%rdx
  4019d0:	48 8d 04 92          	lea    (%rdx,%rdx,4),%rax
  4019d4:	48 8d 14 80          	lea    (%rax,%rax,4),%rdx
  4019d8:	48 8d 04 95 00 00 00 	lea    0x0(,%rdx,4),%rax
  4019df:	00 
  4019e0:	48 29 c1             	sub    %rax,%rcx
  4019e3:	4c 8d 24 0c          	lea    (%rsp,%rcx,1),%r12
  4019e7:	41 89 e8             	mov    %ebp,%r8d
  4019ea:	b9 03 33 40 00       	mov    $0x403303,%ecx
  4019ef:	48 c7 c2 ff ff ff ff 	mov    $0xffffffffffffffff,%rdx
  4019f6:	be 01 00 00 00       	mov    $0x1,%esi
  4019fb:	4c 89 e7             	mov    %r12,%rdi
  4019fe:	b8 00 00 00 00       	mov    $0x0,%eax
  401a03:	e8 98 f4 ff ff       	callq  400ea0 <__sprintf_chk@plt>
  401a08:	ba 09 00 00 00       	mov    $0x9,%edx
  401a0d:	4c 89 e6             	mov    %r12,%rsi
  401a10:	48 89 df             	mov    %rbx,%rdi
  401a13:	e8 b8 f2 ff ff       	callq  400cd0 <strncmp@plt>
  401a18:	85 c0                	test   %eax,%eax
  401a1a:	0f 94 c0             	sete   %al
  401a1d:	48 8b 5c 24 78       	mov    0x78(%rsp),%rbx
  401a22:	64 48 33 1c 25 28 00 	xor    %fs:0x28,%rbx
  401a29:	00 00 
  401a2b:	74 05                	je     401a32 <hexmatch+0xa5>
  401a2d:	e8 de f2 ff ff       	callq  400d10 <__stack_chk_fail@plt>
  401a32:	0f b6 c0             	movzbl %al,%eax
  401a35:	48 83 ec 80          	sub    $0xffffffffffffff80,%rsp
  401a39:	5b                   	pop    %rbx
  401a3a:	5d                   	pop    %rbp
  401a3b:	41 5c                	pop    %r12
  401a3d:	c3                   	retq   

0000000000401a3e <touch3>:
  401a3e:	53                   	push   %rbx
  401a3f:	48 89 fb             	mov    %rdi,%rbx
  401a42:	c7 05 d0 3a 20 00 03 	movl   $0x3,0x203ad0(%rip)        # 60551c <vlevel>
  401a49:	00 00 00 
  401a4c:	48 89 fe             	mov    %rdi,%rsi
  401a4f:	8b 3d cf 3a 20 00    	mov    0x203acf(%rip),%edi        # 605524 <cookie>
  401a55:	e8 33 ff ff ff       	callq  40198d <hexmatch>
  401a5a:	85 c0                	test   %eax,%eax
  401a5c:	74 23                	je     401a81 <touch3+0x43>
  401a5e:	48 89 da             	mov    %rbx,%rdx
  401a61:	be 58 33 40 00       	mov    $0x403358,%esi
  401a66:	bf 01 00 00 00       	mov    $0x1,%edi
  401a6b:	b8 00 00 00 00       	mov    $0x0,%eax
  401a70:	e8 ab f3 ff ff       	callq  400e20 <__printf_chk@plt>
  401a75:	bf 03 00 00 00       	mov    $0x3,%edi
  401a7a:	e8 3b 03 00 00       	callq  401dba <validate>
  401a7f:	eb 21                	jmp    401aa2 <touch3+0x64>
  401a81:	48 89 da             	mov    %rbx,%rdx
  401a84:	be 80 33 40 00       	mov    $0x403380,%esi
  401a89:	bf 01 00 00 00       	mov    $0x1,%edi
  401a8e:	b8 00 00 00 00       	mov    $0x0,%eax
  401a93:	e8 88 f3 ff ff       	callq  400e20 <__printf_chk@plt>
  401a98:	bf 03 00 00 00       	mov    $0x3,%edi
  401a9d:	e8 da 03 00 00       	callq  401e7c <fail>
  401aa2:	bf 00 00 00 00       	mov    $0x0,%edi
  401aa7:	e8 c4 f3 ff ff       	callq  400e70 <exit@plt>

0000000000401aac <test>:
  401aac:	48 83 ec 08          	sub    $0x8,%rsp
  401ab0:	b8 00 00 00 00       	mov    $0x0,%eax
  401ab5:	e8 31 fe ff ff       	callq  4018eb <getbuf>
  401aba:	89 c2                	mov    %eax,%edx
  401abc:	be a8 33 40 00       	mov    $0x4033a8,%esi
  401ac1:	bf 01 00 00 00       	mov    $0x1,%edi
  401ac6:	b8 00 00 00 00       	mov    $0x0,%eax
  401acb:	e8 50 f3 ff ff       	callq  400e20 <__printf_chk@plt>
  401ad0:	48 83 c4 08          	add    $0x8,%rsp
  401ad4:	c3                   	retq   

0000000000401ad5 <save_char>:
  401ad5:	8b 05 69 46 20 00    	mov    0x204669(%rip),%eax        # 606144 <gets_cnt>
  401adb:	3d ff 03 00 00       	cmp    $0x3ff,%eax
  401ae0:	7f 49                	jg     401b2b <save_char+0x56>
  401ae2:	8d 14 40             	lea    (%rax,%rax,2),%edx
  401ae5:	89 f9                	mov    %edi,%ecx
  401ae7:	c0 e9 04             	shr    $0x4,%cl
  401aea:	83 e1 0f             	and    $0xf,%ecx
  401aed:	0f b6 b1 d0 36 40 00 	movzbl 0x4036d0(%rcx),%esi
  401af4:	48 63 ca             	movslq %edx,%rcx
  401af7:	40 88 b1 40 55 60 00 	mov    %sil,0x605540(%rcx)
  401afe:	8d 4a 01             	lea    0x1(%rdx),%ecx
  401b01:	83 e7 0f             	and    $0xf,%edi
  401b04:	0f b6 b7 d0 36 40 00 	movzbl 0x4036d0(%rdi),%esi
  401b0b:	48 63 c9             	movslq %ecx,%rcx
  401b0e:	40 88 b1 40 55 60 00 	mov    %sil,0x605540(%rcx)
  401b15:	83 c2 02             	add    $0x2,%edx
  401b18:	48 63 d2             	movslq %edx,%rdx
  401b1b:	c6 82 40 55 60 00 20 	movb   $0x20,0x605540(%rdx)
  401b22:	83 c0 01             	add    $0x1,%eax
  401b25:	89 05 19 46 20 00    	mov    %eax,0x204619(%rip)        # 606144 <gets_cnt>
  401b2b:	f3 c3                	repz retq 

0000000000401b2d <save_term>:
  401b2d:	8b 05 11 46 20 00    	mov    0x204611(%rip),%eax        # 606144 <gets_cnt>
  401b33:	8d 04 40             	lea    (%rax,%rax,2),%eax
  401b36:	48 98                	cltq   
  401b38:	c6 80 40 55 60 00 00 	movb   $0x0,0x605540(%rax)
  401b3f:	c3                   	retq   

0000000000401b40 <check_fail>:
  401b40:	48 83 ec 08          	sub    $0x8,%rsp
  401b44:	0f be 15 fd 45 20 00 	movsbl 0x2045fd(%rip),%edx        # 606148 <target_prefix>
  401b4b:	41 b8 40 55 60 00    	mov    $0x605540,%r8d
  401b51:	8b 0d c1 39 20 00    	mov    0x2039c1(%rip),%ecx        # 605518 <check_level>
  401b57:	be cb 33 40 00       	mov    $0x4033cb,%esi
  401b5c:	bf 01 00 00 00       	mov    $0x1,%edi
  401b61:	b8 00 00 00 00       	mov    $0x0,%eax
  401b66:	e8 b5 f2 ff ff       	callq  400e20 <__printf_chk@plt>
  401b6b:	bf 01 00 00 00       	mov    $0x1,%edi
  401b70:	e8 fb f2 ff ff       	callq  400e70 <exit@plt>

0000000000401b75 <Gets>:
  401b75:	41 54                	push   %r12
  401b77:	55                   	push   %rbp
  401b78:	53                   	push   %rbx
  401b79:	49 89 fc             	mov    %rdi,%r12
  401b7c:	c7 05 be 45 20 00 00 	movl   $0x0,0x2045be(%rip)        # 606144 <gets_cnt>
  401b83:	00 00 00 
  401b86:	48 89 fb             	mov    %rdi,%rbx
  401b89:	eb 11                	jmp    401b9c <Gets+0x27>
  401b8b:	48 8d 6b 01          	lea    0x1(%rbx),%rbp
  401b8f:	88 03                	mov    %al,(%rbx)
  401b91:	0f b6 f8             	movzbl %al,%edi
  401b94:	e8 3c ff ff ff       	callq  401ad5 <save_char>
  401b99:	48 89 eb             	mov    %rbp,%rbx
  401b9c:	48 8b 3d 6d 39 20 00 	mov    0x20396d(%rip),%rdi        # 605510 <infile>
  401ba3:	e8 48 f2 ff ff       	callq  400df0 <_IO_getc@plt>
  401ba8:	83 f8 ff             	cmp    $0xffffffff,%eax
  401bab:	74 05                	je     401bb2 <Gets+0x3d>
  401bad:	83 f8 0a             	cmp    $0xa,%eax
  401bb0:	75 d9                	jne    401b8b <Gets+0x16>
  401bb2:	c6 03 00             	movb   $0x0,(%rbx)
  401bb5:	b8 00 00 00 00       	mov    $0x0,%eax
  401bba:	e8 6e ff ff ff       	callq  401b2d <save_term>
  401bbf:	4c 89 e0             	mov    %r12,%rax
  401bc2:	5b                   	pop    %rbx
  401bc3:	5d                   	pop    %rbp
  401bc4:	41 5c                	pop    %r12
  401bc6:	c3                   	retq   

0000000000401bc7 <notify_server>:
  401bc7:	53                   	push   %rbx
  401bc8:	48 81 ec 10 40 00 00 	sub    $0x4010,%rsp
  401bcf:	64 48 8b 04 25 28 00 	mov    %fs:0x28,%rax
  401bd6:	00 00 
  401bd8:	48 89 84 24 08 40 00 	mov    %rax,0x4008(%rsp)
  401bdf:	00 
  401be0:	31 c0                	xor    %eax,%eax
  401be2:	83 3d 3f 39 20 00 00 	cmpl   $0x0,0x20393f(%rip)        # 605528 <is_checker>
  401be9:	0f 85 aa 01 00 00    	jne    401d99 <notify_server+0x1d2>
  401bef:	89 fb                	mov    %edi,%ebx
  401bf1:	8b 05 4d 45 20 00    	mov    0x20454d(%rip),%eax        # 606144 <gets_cnt>
  401bf7:	83 c0 64             	add    $0x64,%eax
  401bfa:	3d 00 20 00 00       	cmp    $0x2000,%eax
  401bff:	7e 1e                	jle    401c1f <notify_server+0x58>
  401c01:	be 00 35 40 00       	mov    $0x403500,%esi
  401c06:	bf 01 00 00 00       	mov    $0x1,%edi
  401c0b:	b8 00 00 00 00       	mov    $0x0,%eax
  401c10:	e8 0b f2 ff ff       	callq  400e20 <__printf_chk@plt>
  401c15:	bf 01 00 00 00       	mov    $0x1,%edi
  401c1a:	e8 51 f2 ff ff       	callq  400e70 <exit@plt>
  401c1f:	0f be 05 22 45 20 00 	movsbl 0x204522(%rip),%eax        # 606148 <target_prefix>
  401c26:	83 3d 7b 38 20 00 00 	cmpl   $0x0,0x20387b(%rip)        # 6054a8 <notify>
  401c2d:	74 08                	je     401c37 <notify_server+0x70>
  401c2f:	8b 15 eb 38 20 00    	mov    0x2038eb(%rip),%edx        # 605520 <authkey>
  401c35:	eb 05                	jmp    401c3c <notify_server+0x75>
  401c37:	ba ff ff ff ff       	mov    $0xffffffff,%edx
  401c3c:	85 db                	test   %ebx,%ebx
  401c3e:	74 08                	je     401c48 <notify_server+0x81>
  401c40:	41 b9 e1 33 40 00    	mov    $0x4033e1,%r9d
  401c46:	eb 06                	jmp    401c4e <notify_server+0x87>
  401c48:	41 b9 e6 33 40 00    	mov    $0x4033e6,%r9d
  401c4e:	68 40 55 60 00       	pushq  $0x605540
  401c53:	56                   	push   %rsi
  401c54:	50                   	push   %rax
  401c55:	52                   	push   %rdx
  401c56:	44 8b 05 0b 35 20 00 	mov    0x20350b(%rip),%r8d        # 605168 <target_id>
  401c5d:	b9 eb 33 40 00       	mov    $0x4033eb,%ecx
  401c62:	ba 00 20 00 00       	mov    $0x2000,%edx
  401c67:	be 01 00 00 00       	mov    $0x1,%esi
  401c6c:	48 8d 7c 24 20       	lea    0x20(%rsp),%rdi
  401c71:	b8 00 00 00 00       	mov    $0x0,%eax
  401c76:	e8 25 f2 ff ff       	callq  400ea0 <__sprintf_chk@plt>
  401c7b:	48 83 c4 20          	add    $0x20,%rsp
  401c7f:	83 3d 22 38 20 00 00 	cmpl   $0x0,0x203822(%rip)        # 6054a8 <notify>
  401c86:	0f 84 81 00 00 00    	je     401d0d <notify_server+0x146>
  401c8c:	4c 8d 8c 24 00 20 00 	lea    0x2000(%rsp),%r9
  401c93:	00 
  401c94:	41 b8 00 00 00 00    	mov    $0x0,%r8d
  401c9a:	48 89 e1             	mov    %rsp,%rcx
  401c9d:	48 8b 15 cc 34 20 00 	mov    0x2034cc(%rip),%rdx        # 605170 <lab>
  401ca4:	48 8b 35 cd 34 20 00 	mov    0x2034cd(%rip),%rsi        # 605178 <course>
  401cab:	48 8b 3d ae 34 20 00 	mov    0x2034ae(%rip),%rdi        # 605160 <user_id>
  401cb2:	e8 0e 11 00 00       	callq  402dc5 <driver_post>
  401cb7:	85 c0                	test   %eax,%eax
  401cb9:	79 26                	jns    401ce1 <notify_server+0x11a>
  401cbb:	48 8d 94 24 00 20 00 	lea    0x2000(%rsp),%rdx
  401cc2:	00 
  401cc3:	be 07 34 40 00       	mov    $0x403407,%esi
  401cc8:	bf 01 00 00 00       	mov    $0x1,%edi
  401ccd:	b8 00 00 00 00       	mov    $0x0,%eax
  401cd2:	e8 49 f1 ff ff       	callq  400e20 <__printf_chk@plt>
  401cd7:	bf 01 00 00 00       	mov    $0x1,%edi
  401cdc:	e8 8f f1 ff ff       	callq  400e70 <exit@plt>
  401ce1:	85 db                	test   %ebx,%ebx
  401ce3:	74 19                	je     401cfe <notify_server+0x137>
  401ce5:	bf 30 35 40 00       	mov    $0x403530,%edi
  401cea:	e8 01 f0 ff ff       	callq  400cf0 <puts@plt>
  401cef:	bf 13 34 40 00       	mov    $0x403413,%edi
  401cf4:	e8 f7 ef ff ff       	callq  400cf0 <puts@plt>
  401cf9:	e9 9b 00 00 00       	jmpq   401d99 <notify_server+0x1d2>
  401cfe:	bf 1d 34 40 00       	mov    $0x40341d,%edi
  401d03:	e8 e8 ef ff ff       	callq  400cf0 <puts@plt>
  401d08:	e9 8c 00 00 00       	jmpq   401d99 <notify_server+0x1d2>
  401d0d:	85 db                	test   %ebx,%ebx
  401d0f:	74 07                	je     401d18 <notify_server+0x151>
  401d11:	ba e1 33 40 00       	mov    $0x4033e1,%edx
  401d16:	eb 05                	jmp    401d1d <notify_server+0x156>
  401d18:	ba e6 33 40 00       	mov    $0x4033e6,%edx
  401d1d:	be 68 35 40 00       	mov    $0x403568,%esi
  401d22:	bf 01 00 00 00       	mov    $0x1,%edi
  401d27:	b8 00 00 00 00       	mov    $0x0,%eax
  401d2c:	e8 ef f0 ff ff       	callq  400e20 <__printf_chk@plt>
  401d31:	48 8b 15 28 34 20 00 	mov    0x203428(%rip),%rdx        # 605160 <user_id>
  401d38:	be 24 34 40 00       	mov    $0x403424,%esi
  401d3d:	bf 01 00 00 00       	mov    $0x1,%edi
  401d42:	b8 00 00 00 00       	mov    $0x0,%eax
  401d47:	e8 d4 f0 ff ff       	callq  400e20 <__printf_chk@plt>
  401d4c:	48 8b 15 25 34 20 00 	mov    0x203425(%rip),%rdx        # 605178 <course>
  401d53:	be 31 34 40 00       	mov    $0x403431,%esi
  401d58:	bf 01 00 00 00       	mov    $0x1,%edi
  401d5d:	b8 00 00 00 00       	mov    $0x0,%eax
  401d62:	e8 b9 f0 ff ff       	callq  400e20 <__printf_chk@plt>
  401d67:	48 8b 15 02 34 20 00 	mov    0x203402(%rip),%rdx        # 605170 <lab>
  401d6e:	be 3d 34 40 00       	mov    $0x40343d,%esi
  401d73:	bf 01 00 00 00       	mov    $0x1,%edi
  401d78:	b8 00 00 00 00       	mov    $0x0,%eax
  401d7d:	e8 9e f0 ff ff       	callq  400e20 <__printf_chk@plt>
  401d82:	48 89 e2             	mov    %rsp,%rdx
  401d85:	be 46 34 40 00       	mov    $0x403446,%esi
  401d8a:	bf 01 00 00 00       	mov    $0x1,%edi
  401d8f:	b8 00 00 00 00       	mov    $0x0,%eax
  401d94:	e8 87 f0 ff ff       	callq  400e20 <__printf_chk@plt>
  401d99:	48 8b 84 24 08 40 00 	mov    0x4008(%rsp),%rax
  401da0:	00 
  401da1:	64 48 33 04 25 28 00 	xor    %fs:0x28,%rax
  401da8:	00 00 
  401daa:	74 05                	je     401db1 <notify_server+0x1ea>
  401dac:	e8 5f ef ff ff       	callq  400d10 <__stack_chk_fail@plt>
  401db1:	48 81 c4 10 40 00 00 	add    $0x4010,%rsp
  401db8:	5b                   	pop    %rbx
  401db9:	c3                   	retq   

0000000000401dba <validate>:
  401dba:	53                   	push   %rbx
  401dbb:	89 fb                	mov    %edi,%ebx
  401dbd:	83 3d 64 37 20 00 00 	cmpl   $0x0,0x203764(%rip)        # 605528 <is_checker>
  401dc4:	74 6b                	je     401e31 <validate+0x77>
  401dc6:	39 3d 50 37 20 00    	cmp    %edi,0x203750(%rip)        # 60551c <vlevel>
  401dcc:	74 14                	je     401de2 <validate+0x28>
  401dce:	bf 52 34 40 00       	mov    $0x403452,%edi
  401dd3:	e8 18 ef ff ff       	callq  400cf0 <puts@plt>
  401dd8:	b8 00 00 00 00       	mov    $0x0,%eax
  401ddd:	e8 5e fd ff ff       	callq  401b40 <check_fail>
  401de2:	8b 15 30 37 20 00    	mov    0x203730(%rip),%edx        # 605518 <check_level>
  401de8:	39 d7                	cmp    %edx,%edi
  401dea:	74 20                	je     401e0c <validate+0x52>
  401dec:	89 f9                	mov    %edi,%ecx
  401dee:	be 90 35 40 00       	mov    $0x403590,%esi
  401df3:	bf 01 00 00 00       	mov    $0x1,%edi
  401df8:	b8 00 00 00 00       	mov    $0x0,%eax
  401dfd:	e8 1e f0 ff ff       	callq  400e20 <__printf_chk@plt>
  401e02:	b8 00 00 00 00       	mov    $0x0,%eax
  401e07:	e8 34 fd ff ff       	callq  401b40 <check_fail>
  401e0c:	0f be 15 35 43 20 00 	movsbl 0x204335(%rip),%edx        # 606148 <target_prefix>
  401e13:	41 b8 40 55 60 00    	mov    $0x605540,%r8d
  401e19:	89 f9                	mov    %edi,%ecx
  401e1b:	be 70 34 40 00       	mov    $0x403470,%esi
  401e20:	bf 01 00 00 00       	mov    $0x1,%edi
  401e25:	b8 00 00 00 00       	mov    $0x0,%eax
  401e2a:	e8 f1 ef ff ff       	callq  400e20 <__printf_chk@plt>
  401e2f:	eb 49                	jmp    401e7a <validate+0xc0>
  401e31:	3b 3d e5 36 20 00    	cmp    0x2036e5(%rip),%edi        # 60551c <vlevel>
  401e37:	74 18                	je     401e51 <validate+0x97>
  401e39:	bf 52 34 40 00       	mov    $0x403452,%edi
  401e3e:	e8 ad ee ff ff       	callq  400cf0 <puts@plt>
  401e43:	89 de                	mov    %ebx,%esi
  401e45:	bf 00 00 00 00       	mov    $0x0,%edi
  401e4a:	e8 78 fd ff ff       	callq  401bc7 <notify_server>
  401e4f:	eb 29                	jmp    401e7a <validate+0xc0>
  401e51:	0f be 0d f0 42 20 00 	movsbl 0x2042f0(%rip),%ecx        # 606148 <target_prefix>
  401e58:	89 fa                	mov    %edi,%edx
  401e5a:	be b8 35 40 00       	mov    $0x4035b8,%esi
  401e5f:	bf 01 00 00 00       	mov    $0x1,%edi
  401e64:	b8 00 00 00 00       	mov    $0x0,%eax
  401e69:	e8 b2 ef ff ff       	callq  400e20 <__printf_chk@plt>
  401e6e:	89 de                	mov    %ebx,%esi
  401e70:	bf 01 00 00 00       	mov    $0x1,%edi
  401e75:	e8 4d fd ff ff       	callq  401bc7 <notify_server>
  401e7a:	5b                   	pop    %rbx
  401e7b:	c3                   	retq   

0000000000401e7c <fail>:
  401e7c:	48 83 ec 08          	sub    $0x8,%rsp
  401e80:	83 3d a1 36 20 00 00 	cmpl   $0x0,0x2036a1(%rip)        # 605528 <is_checker>
  401e87:	74 0a                	je     401e93 <fail+0x17>
  401e89:	b8 00 00 00 00       	mov    $0x0,%eax
  401e8e:	e8 ad fc ff ff       	callq  401b40 <check_fail>
  401e93:	89 fe                	mov    %edi,%esi
  401e95:	bf 00 00 00 00       	mov    $0x0,%edi
  401e9a:	e8 28 fd ff ff       	callq  401bc7 <notify_server>
  401e9f:	48 83 c4 08          	add    $0x8,%rsp
  401ea3:	c3                   	retq   

0000000000401ea4 <bushandler>:
  401ea4:	48 83 ec 08          	sub    $0x8,%rsp
  401ea8:	83 3d 79 36 20 00 00 	cmpl   $0x0,0x203679(%rip)        # 605528 <is_checker>
  401eaf:	74 14                	je     401ec5 <bushandler+0x21>
  401eb1:	bf 85 34 40 00       	mov    $0x403485,%edi
  401eb6:	e8 35 ee ff ff       	callq  400cf0 <puts@plt>
  401ebb:	b8 00 00 00 00       	mov    $0x0,%eax
  401ec0:	e8 7b fc ff ff       	callq  401b40 <check_fail>
  401ec5:	bf f0 35 40 00       	mov    $0x4035f0,%edi
  401eca:	e8 21 ee ff ff       	callq  400cf0 <puts@plt>
  401ecf:	bf 8f 34 40 00       	mov    $0x40348f,%edi
  401ed4:	e8 17 ee ff ff       	callq  400cf0 <puts@plt>
  401ed9:	be 00 00 00 00       	mov    $0x0,%esi
  401ede:	bf 00 00 00 00       	mov    $0x0,%edi
  401ee3:	e8 df fc ff ff       	callq  401bc7 <notify_server>
  401ee8:	bf 01 00 00 00       	mov    $0x1,%edi
  401eed:	e8 7e ef ff ff       	callq  400e70 <exit@plt>

0000000000401ef2 <seghandler>:
  401ef2:	48 83 ec 08          	sub    $0x8,%rsp
  401ef6:	83 3d 2b 36 20 00 00 	cmpl   $0x0,0x20362b(%rip)        # 605528 <is_checker>
  401efd:	74 14                	je     401f13 <seghandler+0x21>
  401eff:	bf a5 34 40 00       	mov    $0x4034a5,%edi
  401f04:	e8 e7 ed ff ff       	callq  400cf0 <puts@plt>
  401f09:	b8 00 00 00 00       	mov    $0x0,%eax
  401f0e:	e8 2d fc ff ff       	callq  401b40 <check_fail>
  401f13:	bf 10 36 40 00       	mov    $0x403610,%edi
  401f18:	e8 d3 ed ff ff       	callq  400cf0 <puts@plt>
  401f1d:	bf 8f 34 40 00       	mov    $0x40348f,%edi
  401f22:	e8 c9 ed ff ff       	callq  400cf0 <puts@plt>
  401f27:	be 00 00 00 00       	mov    $0x0,%esi
  401f2c:	bf 00 00 00 00       	mov    $0x0,%edi
  401f31:	e8 91 fc ff ff       	callq  401bc7 <notify_server>
  401f36:	bf 01 00 00 00       	mov    $0x1,%edi
  401f3b:	e8 30 ef ff ff       	callq  400e70 <exit@plt>

0000000000401f40 <illegalhandler>:
  401f40:	48 83 ec 08          	sub    $0x8,%rsp
  401f44:	83 3d dd 35 20 00 00 	cmpl   $0x0,0x2035dd(%rip)        # 605528 <is_checker>
  401f4b:	74 14                	je     401f61 <illegalhandler+0x21>
  401f4d:	bf b8 34 40 00       	mov    $0x4034b8,%edi
  401f52:	e8 99 ed ff ff       	callq  400cf0 <puts@plt>
  401f57:	b8 00 00 00 00       	mov    $0x0,%eax
  401f5c:	e8 df fb ff ff       	callq  401b40 <check_fail>
  401f61:	bf 38 36 40 00       	mov    $0x403638,%edi
  401f66:	e8 85 ed ff ff       	callq  400cf0 <puts@plt>
  401f6b:	bf 8f 34 40 00       	mov    $0x40348f,%edi
  401f70:	e8 7b ed ff ff       	callq  400cf0 <puts@plt>
  401f75:	be 00 00 00 00       	mov    $0x0,%esi
  401f7a:	bf 00 00 00 00       	mov    $0x0,%edi
  401f7f:	e8 43 fc ff ff       	callq  401bc7 <notify_server>
  401f84:	bf 01 00 00 00       	mov    $0x1,%edi
  401f89:	e8 e2 ee ff ff       	callq  400e70 <exit@plt>

0000000000401f8e <sigalrmhandler>:
  401f8e:	48 83 ec 08          	sub    $0x8,%rsp
  401f92:	83 3d 8f 35 20 00 00 	cmpl   $0x0,0x20358f(%rip)        # 605528 <is_checker>
  401f99:	74 14                	je     401faf <sigalrmhandler+0x21>
  401f9b:	bf cc 34 40 00       	mov    $0x4034cc,%edi
  401fa0:	e8 4b ed ff ff       	callq  400cf0 <puts@plt>
  401fa5:	b8 00 00 00 00       	mov    $0x0,%eax
  401faa:	e8 91 fb ff ff       	callq  401b40 <check_fail>
  401faf:	ba 05 00 00 00       	mov    $0x5,%edx
  401fb4:	be 68 36 40 00       	mov    $0x403668,%esi
  401fb9:	bf 01 00 00 00       	mov    $0x1,%edi
  401fbe:	b8 00 00 00 00       	mov    $0x0,%eax
  401fc3:	e8 58 ee ff ff       	callq  400e20 <__printf_chk@plt>
  401fc8:	be 00 00 00 00       	mov    $0x0,%esi
  401fcd:	bf 00 00 00 00       	mov    $0x0,%edi
  401fd2:	e8 f0 fb ff ff       	callq  401bc7 <notify_server>
  401fd7:	bf 01 00 00 00       	mov    $0x1,%edi
  401fdc:	e8 8f ee ff ff       	callq  400e70 <exit@plt>

0000000000401fe1 <launch>:
  401fe1:	55                   	push   %rbp
  401fe2:	48 89 e5             	mov    %rsp,%rbp
  401fe5:	48 83 ec 10          	sub    $0x10,%rsp
  401fe9:	48 89 fa             	mov    %rdi,%rdx
  401fec:	64 48 8b 04 25 28 00 	mov    %fs:0x28,%rax
  401ff3:	00 00 
  401ff5:	48 89 45 f8          	mov    %rax,-0x8(%rbp)
  401ff9:	31 c0                	xor    %eax,%eax
  401ffb:	48 8d 47 1e          	lea    0x1e(%rdi),%rax
  401fff:	48 83 e0 f0          	and    $0xfffffffffffffff0,%rax
  402003:	48 29 c4             	sub    %rax,%rsp
  402006:	48 8d 7c 24 0f       	lea    0xf(%rsp),%rdi
  40200b:	48 83 e7 f0          	and    $0xfffffffffffffff0,%rdi
  40200f:	be f4 00 00 00       	mov    $0xf4,%esi
  402014:	e8 17 ed ff ff       	callq  400d30 <memset@plt>
  402019:	48 8b 05 a0 34 20 00 	mov    0x2034a0(%rip),%rax        # 6054c0 <stdin@@GLIBC_2.2.5>
  402020:	48 39 05 e9 34 20 00 	cmp    %rax,0x2034e9(%rip)        # 605510 <infile>
  402027:	75 14                	jne    40203d <launch+0x5c>
  402029:	be d4 34 40 00       	mov    $0x4034d4,%esi
  40202e:	bf 01 00 00 00       	mov    $0x1,%edi
  402033:	b8 00 00 00 00       	mov    $0x0,%eax
  402038:	e8 e3 ed ff ff       	callq  400e20 <__printf_chk@plt>
  40203d:	c7 05 d5 34 20 00 00 	movl   $0x0,0x2034d5(%rip)        # 60551c <vlevel>
  402044:	00 00 00 
  402047:	b8 00 00 00 00       	mov    $0x0,%eax
  40204c:	e8 5b fa ff ff       	callq  401aac <test>
  402051:	83 3d d0 34 20 00 00 	cmpl   $0x0,0x2034d0(%rip)        # 605528 <is_checker>
  402058:	74 14                	je     40206e <launch+0x8d>
  40205a:	bf e1 34 40 00       	mov    $0x4034e1,%edi
  40205f:	e8 8c ec ff ff       	callq  400cf0 <puts@plt>
  402064:	b8 00 00 00 00       	mov    $0x0,%eax
  402069:	e8 d2 fa ff ff       	callq  401b40 <check_fail>
  40206e:	bf ec 34 40 00       	mov    $0x4034ec,%edi
  402073:	e8 78 ec ff ff       	callq  400cf0 <puts@plt>
  402078:	48 8b 45 f8          	mov    -0x8(%rbp),%rax
  40207c:	64 48 33 04 25 28 00 	xor    %fs:0x28,%rax
  402083:	00 00 
  402085:	74 05                	je     40208c <launch+0xab>
  402087:	e8 84 ec ff ff       	callq  400d10 <__stack_chk_fail@plt>
  40208c:	c9                   	leaveq 
  40208d:	c3                   	retq   

000000000040208e <stable_launch>:
  40208e:	53                   	push   %rbx
  40208f:	48 89 3d 72 34 20 00 	mov    %rdi,0x203472(%rip)        # 605508 <global_offset>
  402096:	41 b9 00 00 00 00    	mov    $0x0,%r9d
  40209c:	41 b8 00 00 00 00    	mov    $0x0,%r8d
  4020a2:	b9 32 01 00 00       	mov    $0x132,%ecx
  4020a7:	ba 07 00 00 00       	mov    $0x7,%edx
  4020ac:	be 00 00 10 00       	mov    $0x100000,%esi
  4020b1:	bf 00 60 58 55       	mov    $0x55586000,%edi
  4020b6:	e8 65 ec ff ff       	callq  400d20 <mmap@plt>
  4020bb:	48 89 c3             	mov    %rax,%rbx
  4020be:	48 3d 00 60 58 55    	cmp    $0x55586000,%rax
  4020c4:	74 37                	je     4020fd <stable_launch+0x6f>
  4020c6:	be 00 00 10 00       	mov    $0x100000,%esi
  4020cb:	48 89 c7             	mov    %rax,%rdi
  4020ce:	e8 3d ed ff ff       	callq  400e10 <munmap@plt>
  4020d3:	b9 00 60 58 55       	mov    $0x55586000,%ecx
  4020d8:	ba a0 36 40 00       	mov    $0x4036a0,%edx
  4020dd:	be 01 00 00 00       	mov    $0x1,%esi
  4020e2:	48 8b 3d f7 33 20 00 	mov    0x2033f7(%rip),%rdi        # 6054e0 <stderr@@GLIBC_2.2.5>
  4020e9:	b8 00 00 00 00       	mov    $0x0,%eax
  4020ee:	e8 9d ed ff ff       	callq  400e90 <__fprintf_chk@plt>
  4020f3:	bf 01 00 00 00       	mov    $0x1,%edi
  4020f8:	e8 73 ed ff ff       	callq  400e70 <exit@plt>
  4020fd:	48 8d 90 f8 ff 0f 00 	lea    0xffff8(%rax),%rdx
  402104:	48 89 15 45 40 20 00 	mov    %rdx,0x204045(%rip)        # 606150 <stack_top>
  40210b:	48 89 e0             	mov    %rsp,%rax
  40210e:	48 89 d4             	mov    %rdx,%rsp
  402111:	48 89 c2             	mov    %rax,%rdx
  402114:	48 89 15 e5 33 20 00 	mov    %rdx,0x2033e5(%rip)        # 605500 <global_save_stack>
  40211b:	48 8b 3d e6 33 20 00 	mov    0x2033e6(%rip),%rdi        # 605508 <global_offset>
  402122:	e8 ba fe ff ff       	callq  401fe1 <launch>
  402127:	48 8b 05 d2 33 20 00 	mov    0x2033d2(%rip),%rax        # 605500 <global_save_stack>
  40212e:	48 89 c4             	mov    %rax,%rsp
  402131:	be 00 00 10 00       	mov    $0x100000,%esi
  402136:	48 89 df             	mov    %rbx,%rdi
  402139:	e8 d2 ec ff ff       	callq  400e10 <munmap@plt>
  40213e:	5b                   	pop    %rbx
  40213f:	c3                   	retq   

0000000000402140 <rio_readinitb>:
  402140:	89 37                	mov    %esi,(%rdi)
  402142:	c7 47 04 00 00 00 00 	movl   $0x0,0x4(%rdi)
  402149:	48 8d 47 10          	lea    0x10(%rdi),%rax
  40214d:	48 89 47 08          	mov    %rax,0x8(%rdi)
  402151:	c3                   	retq   

0000000000402152 <sigalrm_handler>:
  402152:	48 83 ec 08          	sub    $0x8,%rsp
  402156:	b9 00 00 00 00       	mov    $0x0,%ecx
  40215b:	ba e0 36 40 00       	mov    $0x4036e0,%edx
  402160:	be 01 00 00 00       	mov    $0x1,%esi
  402165:	48 8b 3d 74 33 20 00 	mov    0x203374(%rip),%rdi        # 6054e0 <stderr@@GLIBC_2.2.5>
  40216c:	b8 00 00 00 00       	mov    $0x0,%eax
  402171:	e8 1a ed ff ff       	callq  400e90 <__fprintf_chk@plt>
  402176:	bf 01 00 00 00       	mov    $0x1,%edi
  40217b:	e8 f0 ec ff ff       	callq  400e70 <exit@plt>

0000000000402180 <rio_writen>:
  402180:	41 55                	push   %r13
  402182:	41 54                	push   %r12
  402184:	55                   	push   %rbp
  402185:	53                   	push   %rbx
  402186:	48 83 ec 08          	sub    $0x8,%rsp
  40218a:	41 89 fc             	mov    %edi,%r12d
  40218d:	48 89 f5             	mov    %rsi,%rbp
  402190:	49 89 d5             	mov    %rdx,%r13
  402193:	48 89 d3             	mov    %rdx,%rbx
  402196:	eb 28                	jmp    4021c0 <rio_writen+0x40>
  402198:	48 89 da             	mov    %rbx,%rdx
  40219b:	48 89 ee             	mov    %rbp,%rsi
  40219e:	44 89 e7             	mov    %r12d,%edi
  4021a1:	e8 5a eb ff ff       	callq  400d00 <write@plt>
  4021a6:	48 85 c0             	test   %rax,%rax
  4021a9:	7f 0f                	jg     4021ba <rio_writen+0x3a>
  4021ab:	e8 00 eb ff ff       	callq  400cb0 <__errno_location@plt>
  4021b0:	83 38 04             	cmpl   $0x4,(%rax)
  4021b3:	75 15                	jne    4021ca <rio_writen+0x4a>
  4021b5:	b8 00 00 00 00       	mov    $0x0,%eax
  4021ba:	48 29 c3             	sub    %rax,%rbx
  4021bd:	48 01 c5             	add    %rax,%rbp
  4021c0:	48 85 db             	test   %rbx,%rbx
  4021c3:	75 d3                	jne    402198 <rio_writen+0x18>
  4021c5:	4c 89 e8             	mov    %r13,%rax
  4021c8:	eb 07                	jmp    4021d1 <rio_writen+0x51>
  4021ca:	48 c7 c0 ff ff ff ff 	mov    $0xffffffffffffffff,%rax
  4021d1:	48 83 c4 08          	add    $0x8,%rsp
  4021d5:	5b                   	pop    %rbx
  4021d6:	5d                   	pop    %rbp
  4021d7:	41 5c                	pop    %r12
  4021d9:	41 5d                	pop    %r13
  4021db:	c3                   	retq   

00000000004021dc <rio_read>:
  4021dc:	41 55                	push   %r13
  4021de:	41 54                	push   %r12
  4021e0:	55                   	push   %rbp
  4021e1:	53                   	push   %rbx
  4021e2:	48 83 ec 08          	sub    $0x8,%rsp
  4021e6:	48 89 fb             	mov    %rdi,%rbx
  4021e9:	49 89 f5             	mov    %rsi,%r13
  4021ec:	49 89 d4             	mov    %rdx,%r12
  4021ef:	eb 2e                	jmp    40221f <rio_read+0x43>
  4021f1:	48 8d 6b 10          	lea    0x10(%rbx),%rbp
  4021f5:	8b 3b                	mov    (%rbx),%edi
  4021f7:	ba 00 20 00 00       	mov    $0x2000,%edx
  4021fc:	48 89 ee             	mov    %rbp,%rsi
  4021ff:	e8 5c eb ff ff       	callq  400d60 <read@plt>
  402204:	89 43 04             	mov    %eax,0x4(%rbx)
  402207:	85 c0                	test   %eax,%eax
  402209:	79 0c                	jns    402217 <rio_read+0x3b>
  40220b:	e8 a0 ea ff ff       	callq  400cb0 <__errno_location@plt>
  402210:	83 38 04             	cmpl   $0x4,(%rax)
  402213:	74 0a                	je     40221f <rio_read+0x43>
  402215:	eb 37                	jmp    40224e <rio_read+0x72>
  402217:	85 c0                	test   %eax,%eax
  402219:	74 3c                	je     402257 <rio_read+0x7b>
  40221b:	48 89 6b 08          	mov    %rbp,0x8(%rbx)
  40221f:	8b 6b 04             	mov    0x4(%rbx),%ebp
  402222:	85 ed                	test   %ebp,%ebp
  402224:	7e cb                	jle    4021f1 <rio_read+0x15>
  402226:	89 e8                	mov    %ebp,%eax
  402228:	49 39 c4             	cmp    %rax,%r12
  40222b:	77 03                	ja     402230 <rio_read+0x54>
  40222d:	44 89 e5             	mov    %r12d,%ebp
  402230:	4c 63 e5             	movslq %ebp,%r12
  402233:	48 8b 73 08          	mov    0x8(%rbx),%rsi
  402237:	4c 89 e2             	mov    %r12,%rdx
  40223a:	4c 89 ef             	mov    %r13,%rdi
  40223d:	e8 7e eb ff ff       	callq  400dc0 <memcpy@plt>
  402242:	4c 01 63 08          	add    %r12,0x8(%rbx)
  402246:	29 6b 04             	sub    %ebp,0x4(%rbx)
  402249:	4c 89 e0             	mov    %r12,%rax
  40224c:	eb 0e                	jmp    40225c <rio_read+0x80>
  40224e:	48 c7 c0 ff ff ff ff 	mov    $0xffffffffffffffff,%rax
  402255:	eb 05                	jmp    40225c <rio_read+0x80>
  402257:	b8 00 00 00 00       	mov    $0x0,%eax
  40225c:	48 83 c4 08          	add    $0x8,%rsp
  402260:	5b                   	pop    %rbx
  402261:	5d                   	pop    %rbp
  402262:	41 5c                	pop    %r12
  402264:	41 5d                	pop    %r13
  402266:	c3                   	retq   

0000000000402267 <rio_readlineb>:
  402267:	41 55                	push   %r13
  402269:	41 54                	push   %r12
  40226b:	55                   	push   %rbp
  40226c:	53                   	push   %rbx
  40226d:	48 83 ec 18          	sub    $0x18,%rsp
  402271:	49 89 fd             	mov    %rdi,%r13
  402274:	48 89 f5             	mov    %rsi,%rbp
  402277:	49 89 d4             	mov    %rdx,%r12
  40227a:	64 48 8b 04 25 28 00 	mov    %fs:0x28,%rax
  402281:	00 00 
  402283:	48 89 44 24 08       	mov    %rax,0x8(%rsp)
  402288:	31 c0                	xor    %eax,%eax
  40228a:	bb 01 00 00 00       	mov    $0x1,%ebx
  40228f:	eb 3f                	jmp    4022d0 <rio_readlineb+0x69>
  402291:	ba 01 00 00 00       	mov    $0x1,%edx
  402296:	48 8d 74 24 07       	lea    0x7(%rsp),%rsi
  40229b:	4c 89 ef             	mov    %r13,%rdi
  40229e:	e8 39 ff ff ff       	callq  4021dc <rio_read>
  4022a3:	83 f8 01             	cmp    $0x1,%eax
  4022a6:	75 15                	jne    4022bd <rio_readlineb+0x56>
  4022a8:	48 8d 45 01          	lea    0x1(%rbp),%rax
  4022ac:	0f b6 54 24 07       	movzbl 0x7(%rsp),%edx
  4022b1:	88 55 00             	mov    %dl,0x0(%rbp)
  4022b4:	80 7c 24 07 0a       	cmpb   $0xa,0x7(%rsp)
  4022b9:	75 0e                	jne    4022c9 <rio_readlineb+0x62>
  4022bb:	eb 1a                	jmp    4022d7 <rio_readlineb+0x70>
  4022bd:	85 c0                	test   %eax,%eax
  4022bf:	75 22                	jne    4022e3 <rio_readlineb+0x7c>
  4022c1:	48 83 fb 01          	cmp    $0x1,%rbx
  4022c5:	75 13                	jne    4022da <rio_readlineb+0x73>
  4022c7:	eb 23                	jmp    4022ec <rio_readlineb+0x85>
  4022c9:	48 83 c3 01          	add    $0x1,%rbx
  4022cd:	48 89 c5             	mov    %rax,%rbp
  4022d0:	4c 39 e3             	cmp    %r12,%rbx
  4022d3:	72 bc                	jb     402291 <rio_readlineb+0x2a>
  4022d5:	eb 03                	jmp    4022da <rio_readlineb+0x73>
  4022d7:	48 89 c5             	mov    %rax,%rbp
  4022da:	c6 45 00 00          	movb   $0x0,0x0(%rbp)
  4022de:	48 89 d8             	mov    %rbx,%rax
  4022e1:	eb 0e                	jmp    4022f1 <rio_readlineb+0x8a>
  4022e3:	48 c7 c0 ff ff ff ff 	mov    $0xffffffffffffffff,%rax
  4022ea:	eb 05                	jmp    4022f1 <rio_readlineb+0x8a>
  4022ec:	b8 00 00 00 00       	mov    $0x0,%eax
  4022f1:	48 8b 4c 24 08       	mov    0x8(%rsp),%rcx
  4022f6:	64 48 33 0c 25 28 00 	xor    %fs:0x28,%rcx
  4022fd:	00 00 
  4022ff:	74 05                	je     402306 <rio_readlineb+0x9f>
  402301:	e8 0a ea ff ff       	callq  400d10 <__stack_chk_fail@plt>
  402306:	48 83 c4 18          	add    $0x18,%rsp
  40230a:	5b                   	pop    %rbx
  40230b:	5d                   	pop    %rbp
  40230c:	41 5c                	pop    %r12
  40230e:	41 5d                	pop    %r13
  402310:	c3                   	retq   

0000000000402311 <urlencode>:
  402311:	41 54                	push   %r12
  402313:	55                   	push   %rbp
  402314:	53                   	push   %rbx
  402315:	48 83 ec 10          	sub    $0x10,%rsp
  402319:	48 89 fb             	mov    %rdi,%rbx
  40231c:	48 89 f5             	mov    %rsi,%rbp
  40231f:	64 48 8b 04 25 28 00 	mov    %fs:0x28,%rax
  402326:	00 00 
  402328:	48 89 44 24 08       	mov    %rax,0x8(%rsp)
  40232d:	31 c0                	xor    %eax,%eax
  40232f:	48 c7 c1 ff ff ff ff 	mov    $0xffffffffffffffff,%rcx
  402336:	f2 ae                	repnz scas %es:(%rdi),%al
  402338:	48 f7 d1             	not    %rcx
  40233b:	8d 41 ff             	lea    -0x1(%rcx),%eax
  40233e:	e9 aa 00 00 00       	jmpq   4023ed <urlencode+0xdc>
  402343:	44 0f b6 03          	movzbl (%rbx),%r8d
  402347:	41 80 f8 2a          	cmp    $0x2a,%r8b
  40234b:	0f 94 c2             	sete   %dl
  40234e:	41 80 f8 2d          	cmp    $0x2d,%r8b
  402352:	0f 94 c0             	sete   %al
  402355:	08 c2                	or     %al,%dl
  402357:	75 24                	jne    40237d <urlencode+0x6c>
  402359:	41 80 f8 2e          	cmp    $0x2e,%r8b
  40235d:	74 1e                	je     40237d <urlencode+0x6c>
  40235f:	41 80 f8 5f          	cmp    $0x5f,%r8b
  402363:	74 18                	je     40237d <urlencode+0x6c>
  402365:	41 8d 40 d0          	lea    -0x30(%r8),%eax
  402369:	3c 09                	cmp    $0x9,%al
  40236b:	76 10                	jbe    40237d <urlencode+0x6c>
  40236d:	41 8d 40 bf          	lea    -0x41(%r8),%eax
  402371:	3c 19                	cmp    $0x19,%al
  402373:	76 08                	jbe    40237d <urlencode+0x6c>
  402375:	41 8d 40 9f          	lea    -0x61(%r8),%eax
  402379:	3c 19                	cmp    $0x19,%al
  40237b:	77 0a                	ja     402387 <urlencode+0x76>
  40237d:	44 88 45 00          	mov    %r8b,0x0(%rbp)
  402381:	48 8d 6d 01          	lea    0x1(%rbp),%rbp
  402385:	eb 5f                	jmp    4023e6 <urlencode+0xd5>
  402387:	41 80 f8 20          	cmp    $0x20,%r8b
  40238b:	75 0a                	jne    402397 <urlencode+0x86>
  40238d:	c6 45 00 2b          	movb   $0x2b,0x0(%rbp)
  402391:	48 8d 6d 01          	lea    0x1(%rbp),%rbp
  402395:	eb 4f                	jmp    4023e6 <urlencode+0xd5>
  402397:	41 8d 40 e0          	lea    -0x20(%r8),%eax
  40239b:	3c 5f                	cmp    $0x5f,%al
  40239d:	0f 96 c2             	setbe  %dl
  4023a0:	41 80 f8 09          	cmp    $0x9,%r8b
  4023a4:	0f 94 c0             	sete   %al
  4023a7:	08 c2                	or     %al,%dl
  4023a9:	74 50                	je     4023fb <urlencode+0xea>
  4023ab:	45 0f b6 c0          	movzbl %r8b,%r8d
  4023af:	b9 98 37 40 00       	mov    $0x403798,%ecx
  4023b4:	ba 08 00 00 00       	mov    $0x8,%edx
  4023b9:	be 01 00 00 00       	mov    $0x1,%esi
  4023be:	48 89 e7             	mov    %rsp,%rdi
  4023c1:	b8 00 00 00 00       	mov    $0x0,%eax
  4023c6:	e8 d5 ea ff ff       	callq  400ea0 <__sprintf_chk@plt>
  4023cb:	0f b6 04 24          	movzbl (%rsp),%eax
  4023cf:	88 45 00             	mov    %al,0x0(%rbp)
  4023d2:	0f b6 44 24 01       	movzbl 0x1(%rsp),%eax
  4023d7:	88 45 01             	mov    %al,0x1(%rbp)
  4023da:	0f b6 44 24 02       	movzbl 0x2(%rsp),%eax
  4023df:	88 45 02             	mov    %al,0x2(%rbp)
  4023e2:	48 8d 6d 03          	lea    0x3(%rbp),%rbp
  4023e6:	48 83 c3 01          	add    $0x1,%rbx
  4023ea:	44 89 e0             	mov    %r12d,%eax
  4023ed:	44 8d 60 ff          	lea    -0x1(%rax),%r12d
  4023f1:	85 c0                	test   %eax,%eax
  4023f3:	0f 85 4a ff ff ff    	jne    402343 <urlencode+0x32>
  4023f9:	eb 05                	jmp    402400 <urlencode+0xef>
  4023fb:	b8 ff ff ff ff       	mov    $0xffffffff,%eax
  402400:	48 8b 74 24 08       	mov    0x8(%rsp),%rsi
  402405:	64 48 33 34 25 28 00 	xor    %fs:0x28,%rsi
  40240c:	00 00 
  40240e:	74 05                	je     402415 <urlencode+0x104>
  402410:	e8 fb e8 ff ff       	callq  400d10 <__stack_chk_fail@plt>
  402415:	48 83 c4 10          	add    $0x10,%rsp
  402419:	5b                   	pop    %rbx
  40241a:	5d                   	pop    %rbp
  40241b:	41 5c                	pop    %r12
  40241d:	c3                   	retq   

000000000040241e <submitr>:
  40241e:	41 57                	push   %r15
  402420:	41 56                	push   %r14
  402422:	41 55                	push   %r13
  402424:	41 54                	push   %r12
  402426:	55                   	push   %rbp
  402427:	53                   	push   %rbx
  402428:	48 81 ec 58 a0 00 00 	sub    $0xa058,%rsp
  40242f:	49 89 fd             	mov    %rdi,%r13
  402432:	89 74 24 0c          	mov    %esi,0xc(%rsp)
  402436:	48 89 14 24          	mov    %rdx,(%rsp)
  40243a:	49 89 ce             	mov    %rcx,%r14
  40243d:	4d 89 c7             	mov    %r8,%r15
  402440:	4d 89 cc             	mov    %r9,%r12
  402443:	48 8b 9c 24 90 a0 00 	mov    0xa090(%rsp),%rbx
  40244a:	00 
  40244b:	64 48 8b 04 25 28 00 	mov    %fs:0x28,%rax
  402452:	00 00 
  402454:	48 89 84 24 48 a0 00 	mov    %rax,0xa048(%rsp)
  40245b:	00 
  40245c:	31 c0                	xor    %eax,%eax
  40245e:	c7 44 24 1c 00 00 00 	movl   $0x0,0x1c(%rsp)
  402465:	00 
  402466:	ba 00 00 00 00       	mov    $0x0,%edx
  40246b:	be 01 00 00 00       	mov    $0x1,%esi
  402470:	bf 02 00 00 00       	mov    $0x2,%edi
  402475:	e8 36 ea ff ff       	callq  400eb0 <socket@plt>
  40247a:	85 c0                	test   %eax,%eax
  40247c:	79 4e                	jns    4024cc <submitr+0xae>
  40247e:	48 b8 45 72 72 6f 72 	movabs $0x43203a726f727245,%rax
  402485:	3a 20 43 
  402488:	48 89 03             	mov    %rax,(%rbx)
  40248b:	48 b8 6c 69 65 6e 74 	movabs $0x6e7520746e65696c,%rax
  402492:	20 75 6e 
  402495:	48 89 43 08          	mov    %rax,0x8(%rbx)
  402499:	48 b8 61 62 6c 65 20 	movabs $0x206f7420656c6261,%rax
  4024a0:	74 6f 20 
  4024a3:	48 89 43 10          	mov    %rax,0x10(%rbx)
  4024a7:	48 b8 63 72 65 61 74 	movabs $0x7320657461657263,%rax
  4024ae:	65 20 73 
  4024b1:	48 89 43 18          	mov    %rax,0x18(%rbx)
  4024b5:	c7 43 20 6f 63 6b 65 	movl   $0x656b636f,0x20(%rbx)
  4024bc:	66 c7 43 24 74 00    	movw   $0x74,0x24(%rbx)
  4024c2:	b8 ff ff ff ff       	mov    $0xffffffff,%eax
  4024c7:	e9 b3 06 00 00       	jmpq   402b7f <submitr+0x761>
  4024cc:	89 c5                	mov    %eax,%ebp
  4024ce:	4c 89 ef             	mov    %r13,%rdi
  4024d1:	e8 ba e8 ff ff       	callq  400d90 <gethostbyname@plt>
  4024d6:	48 85 c0             	test   %rax,%rax
  4024d9:	75 75                	jne    402550 <submitr+0x132>
  4024db:	48 b8 45 72 72 6f 72 	movabs $0x44203a726f727245,%rax
  4024e2:	3a 20 44 
  4024e5:	48 89 03             	mov    %rax,(%rbx)
  4024e8:	48 b8 4e 53 20 69 73 	movabs $0x6e7520736920534e,%rax
  4024ef:	20 75 6e 
  4024f2:	48 89 43 08          	mov    %rax,0x8(%rbx)
  4024f6:	48 b8 61 62 6c 65 20 	movabs $0x206f7420656c6261,%rax
  4024fd:	74 6f 20 
  402500:	48 89 43 10          	mov    %rax,0x10(%rbx)
  402504:	48 b8 72 65 73 6f 6c 	movabs $0x2065766c6f736572,%rax
  40250b:	76 65 20 
  40250e:	48 89 43 18          	mov    %rax,0x18(%rbx)
  402512:	48 b8 41 75 74 6f 6c 	movabs $0x2062616c6f747541,%rax
  402519:	61 62 20 
  40251c:	48 89 43 20          	mov    %rax,0x20(%rbx)
  402520:	48 b8 73 65 72 76 65 	movabs $0x6120726576726573,%rax
  402527:	72 20 61 
  40252a:	48 89 43 28          	mov    %rax,0x28(%rbx)
  40252e:	c7 43 30 64 64 72 65 	movl   $0x65726464,0x30(%rbx)
  402535:	66 c7 43 34 73 73    	movw   $0x7373,0x34(%rbx)
  40253b:	c6 43 36 00          	movb   $0x0,0x36(%rbx)
  40253f:	89 ef                	mov    %ebp,%edi
  402541:	e8 0a e8 ff ff       	callq  400d50 <close@plt>
  402546:	b8 ff ff ff ff       	mov    $0xffffffff,%eax
  40254b:	e9 2f 06 00 00       	jmpq   402b7f <submitr+0x761>
  402550:	48 c7 44 24 20 00 00 	movq   $0x0,0x20(%rsp)
  402557:	00 00 
  402559:	48 c7 44 24 28 00 00 	movq   $0x0,0x28(%rsp)
  402560:	00 00 
  402562:	66 c7 44 24 20 02 00 	movw   $0x2,0x20(%rsp)
  402569:	48 63 50 14          	movslq 0x14(%rax),%rdx
  40256d:	48 8b 40 18          	mov    0x18(%rax),%rax
  402571:	48 8b 30             	mov    (%rax),%rsi
  402574:	48 8d 7c 24 24       	lea    0x24(%rsp),%rdi
  402579:	b9 0c 00 00 00       	mov    $0xc,%ecx
  40257e:	e8 1d e8 ff ff       	callq  400da0 <__memmove_chk@plt>
  402583:	0f b7 44 24 0c       	movzwl 0xc(%rsp),%eax
  402588:	66 c1 c8 08          	ror    $0x8,%ax
  40258c:	66 89 44 24 22       	mov    %ax,0x22(%rsp)
  402591:	ba 10 00 00 00       	mov    $0x10,%edx
  402596:	48 8d 74 24 20       	lea    0x20(%rsp),%rsi
  40259b:	89 ef                	mov    %ebp,%edi
  40259d:	e8 de e8 ff ff       	callq  400e80 <connect@plt>
  4025a2:	85 c0                	test   %eax,%eax
  4025a4:	79 67                	jns    40260d <submitr+0x1ef>
  4025a6:	48 b8 45 72 72 6f 72 	movabs $0x55203a726f727245,%rax
  4025ad:	3a 20 55 
  4025b0:	48 89 03             	mov    %rax,(%rbx)
  4025b3:	48 b8 6e 61 62 6c 65 	movabs $0x6f7420656c62616e,%rax
  4025ba:	20 74 6f 
  4025bd:	48 89 43 08          	mov    %rax,0x8(%rbx)
  4025c1:	48 b8 20 63 6f 6e 6e 	movabs $0x7463656e6e6f6320,%rax
  4025c8:	65 63 74 
  4025cb:	48 89 43 10          	mov    %rax,0x10(%rbx)
  4025cf:	48 b8 20 74 6f 20 74 	movabs $0x20656874206f7420,%rax
  4025d6:	68 65 20 
  4025d9:	48 89 43 18          	mov    %rax,0x18(%rbx)
  4025dd:	48 b8 41 75 74 6f 6c 	movabs $0x2062616c6f747541,%rax
  4025e4:	61 62 20 
  4025e7:	48 89 43 20          	mov    %rax,0x20(%rbx)
  4025eb:	c7 43 28 73 65 72 76 	movl   $0x76726573,0x28(%rbx)
  4025f2:	66 c7 43 2c 65 72    	movw   $0x7265,0x2c(%rbx)
  4025f8:	c6 43 2e 00          	movb   $0x0,0x2e(%rbx)
  4025fc:	89 ef                	mov    %ebp,%edi
  4025fe:	e8 4d e7 ff ff       	callq  400d50 <close@plt>
  402603:	b8 ff ff ff ff       	mov    $0xffffffff,%eax
  402608:	e9 72 05 00 00       	jmpq   402b7f <submitr+0x761>
  40260d:	48 c7 c6 ff ff ff ff 	mov    $0xffffffffffffffff,%rsi
  402614:	b8 00 00 00 00       	mov    $0x0,%eax
  402619:	48 89 f1             	mov    %rsi,%rcx
  40261c:	4c 89 e7             	mov    %r12,%rdi
  40261f:	f2 ae                	repnz scas %es:(%rdi),%al
  402621:	48 f7 d1             	not    %rcx
  402624:	48 89 ca             	mov    %rcx,%rdx
  402627:	48 89 f1             	mov    %rsi,%rcx
  40262a:	48 8b 3c 24          	mov    (%rsp),%rdi
  40262e:	f2 ae                	repnz scas %es:(%rdi),%al
  402630:	48 f7 d1             	not    %rcx
  402633:	49 89 c8             	mov    %rcx,%r8
  402636:	48 89 f1             	mov    %rsi,%rcx
  402639:	4c 89 f7             	mov    %r14,%rdi
  40263c:	f2 ae                	repnz scas %es:(%rdi),%al
  40263e:	48 f7 d1             	not    %rcx
  402641:	4d 8d 44 08 fe       	lea    -0x2(%r8,%rcx,1),%r8
  402646:	48 89 f1             	mov    %rsi,%rcx
  402649:	4c 89 ff             	mov    %r15,%rdi
  40264c:	f2 ae                	repnz scas %es:(%rdi),%al
  40264e:	48 89 c8             	mov    %rcx,%rax
  402651:	48 f7 d0             	not    %rax
  402654:	49 8d 4c 00 ff       	lea    -0x1(%r8,%rax,1),%rcx
  402659:	48 8d 44 52 fd       	lea    -0x3(%rdx,%rdx,2),%rax
  40265e:	48 8d 84 01 80 00 00 	lea    0x80(%rcx,%rax,1),%rax
  402665:	00 
  402666:	48 3d 00 20 00 00    	cmp    $0x2000,%rax
  40266c:	76 72                	jbe    4026e0 <submitr+0x2c2>
  40266e:	48 b8 45 72 72 6f 72 	movabs $0x52203a726f727245,%rax
  402675:	3a 20 52 
  402678:	48 89 03             	mov    %rax,(%rbx)
  40267b:	48 b8 65 73 75 6c 74 	movabs $0x747320746c757365,%rax
  402682:	20 73 74 
  402685:	48 89 43 08          	mov    %rax,0x8(%rbx)
  402689:	48 b8 72 69 6e 67 20 	movabs $0x6f6f7420676e6972,%rax
  402690:	74 6f 6f 
  402693:	48 89 43 10          	mov    %rax,0x10(%rbx)
  402697:	48 b8 20 6c 61 72 67 	movabs $0x202e656772616c20,%rax
  40269e:	65 2e 20 
  4026a1:	48 89 43 18          	mov    %rax,0x18(%rbx)
  4026a5:	48 b8 49 6e 63 72 65 	movabs $0x6573616572636e49,%rax
  4026ac:	61 73 65 
  4026af:	48 89 43 20          	mov    %rax,0x20(%rbx)
  4026b3:	48 b8 20 53 55 42 4d 	movabs $0x5254494d42555320,%rax
  4026ba:	49 54 52 
  4026bd:	48 89 43 28          	mov    %rax,0x28(%rbx)
  4026c1:	48 b8 5f 4d 41 58 42 	movabs $0x46554258414d5f,%rax
  4026c8:	55 46 00 
  4026cb:	48 89 43 30          	mov    %rax,0x30(%rbx)
  4026cf:	89 ef                	mov    %ebp,%edi
  4026d1:	e8 7a e6 ff ff       	callq  400d50 <close@plt>
  4026d6:	b8 ff ff ff ff       	mov    $0xffffffff,%eax
  4026db:	e9 9f 04 00 00       	jmpq   402b7f <submitr+0x761>
  4026e0:	48 8d b4 24 40 40 00 	lea    0x4040(%rsp),%rsi
  4026e7:	00 
  4026e8:	b9 00 04 00 00       	mov    $0x400,%ecx
  4026ed:	b8 00 00 00 00       	mov    $0x0,%eax
  4026f2:	48 89 f7             	mov    %rsi,%rdi
  4026f5:	f3 48 ab             	rep stos %rax,%es:(%rdi)
  4026f8:	4c 89 e7             	mov    %r12,%rdi
  4026fb:	e8 11 fc ff ff       	callq  402311 <urlencode>
  402700:	85 c0                	test   %eax,%eax
  402702:	0f 89 8a 00 00 00    	jns    402792 <submitr+0x374>
  402708:	48 b8 45 72 72 6f 72 	movabs $0x52203a726f727245,%rax
  40270f:	3a 20 52 
  402712:	48 89 03             	mov    %rax,(%rbx)
  402715:	48 b8 65 73 75 6c 74 	movabs $0x747320746c757365,%rax
  40271c:	20 73 74 
  40271f:	48 89 43 08          	mov    %rax,0x8(%rbx)
  402723:	48 b8 72 69 6e 67 20 	movabs $0x6e6f6320676e6972,%rax
  40272a:	63 6f 6e 
  40272d:	48 89 43 10          	mov    %rax,0x10(%rbx)
  402731:	48 b8 74 61 69 6e 73 	movabs $0x6e6120736e696174,%rax
  402738:	20 61 6e 
  40273b:	48 89 43 18          	mov    %rax,0x18(%rbx)
  40273f:	48 b8 20 69 6c 6c 65 	movabs $0x6c6167656c6c6920,%rax
  402746:	67 61 6c 
  402749:	48 89 43 20          	mov    %rax,0x20(%rbx)
  40274d:	48 b8 20 6f 72 20 75 	movabs $0x72706e7520726f20,%rax
  402754:	6e 70 72 
  402757:	48 89 43 28          	mov    %rax,0x28(%rbx)
  40275b:	48 b8 69 6e 74 61 62 	movabs $0x20656c6261746e69,%rax
  402762:	6c 65 20 
  402765:	48 89 43 30          	mov    %rax,0x30(%rbx)
  402769:	48 b8 63 68 61 72 61 	movabs $0x6574636172616863,%rax
  402770:	63 74 65 
  402773:	48 89 43 38          	mov    %rax,0x38(%rbx)
  402777:	66 c7 43 40 72 2e    	movw   $0x2e72,0x40(%rbx)
  40277d:	c6 43 42 00          	movb   $0x0,0x42(%rbx)
  402781:	89 ef                	mov    %ebp,%edi
  402783:	e8 c8 e5 ff ff       	callq  400d50 <close@plt>
  402788:	b8 ff ff ff ff       	mov    $0xffffffff,%eax
  40278d:	e9 ed 03 00 00       	jmpq   402b7f <submitr+0x761>
  402792:	4c 8d a4 24 40 20 00 	lea    0x2040(%rsp),%r12
  402799:	00 
  40279a:	48 83 ec 08          	sub    $0x8,%rsp
  40279e:	41 55                	push   %r13
  4027a0:	48 8d 84 24 50 40 00 	lea    0x4050(%rsp),%rax
  4027a7:	00 
  4027a8:	50                   	push   %rax
  4027a9:	41 56                	push   %r14
  4027ab:	4d 89 f9             	mov    %r15,%r9
  4027ae:	4c 8b 44 24 20       	mov    0x20(%rsp),%r8
  4027b3:	b9 08 37 40 00       	mov    $0x403708,%ecx
  4027b8:	ba 00 20 00 00       	mov    $0x2000,%edx
  4027bd:	be 01 00 00 00       	mov    $0x1,%esi
  4027c2:	4c 89 e7             	mov    %r12,%rdi
  4027c5:	b8 00 00 00 00       	mov    $0x0,%eax
  4027ca:	e8 d1 e6 ff ff       	callq  400ea0 <__sprintf_chk@plt>
  4027cf:	b8 00 00 00 00       	mov    $0x0,%eax
  4027d4:	48 c7 c1 ff ff ff ff 	mov    $0xffffffffffffffff,%rcx
  4027db:	4c 89 e7             	mov    %r12,%rdi
  4027de:	f2 ae                	repnz scas %es:(%rdi),%al
  4027e0:	48 f7 d1             	not    %rcx
  4027e3:	48 8d 51 ff          	lea    -0x1(%rcx),%rdx
  4027e7:	48 83 c4 20          	add    $0x20,%rsp
  4027eb:	4c 89 e6             	mov    %r12,%rsi
  4027ee:	89 ef                	mov    %ebp,%edi
  4027f0:	e8 8b f9 ff ff       	callq  402180 <rio_writen>
  4027f5:	48 85 c0             	test   %rax,%rax
  4027f8:	79 6b                	jns    402865 <submitr+0x447>
  4027fa:	48 b8 45 72 72 6f 72 	movabs $0x43203a726f727245,%rax
  402801:	3a 20 43 
  402804:	48 89 03             	mov    %rax,(%rbx)
  402807:	48 b8 6c 69 65 6e 74 	movabs $0x6e7520746e65696c,%rax
  40280e:	20 75 6e 
  402811:	48 89 43 08          	mov    %rax,0x8(%rbx)
  402815:	48 b8 61 62 6c 65 20 	movabs $0x206f7420656c6261,%rax
  40281c:	74 6f 20 
  40281f:	48 89 43 10          	mov    %rax,0x10(%rbx)
  402823:	48 b8 77 72 69 74 65 	movabs $0x6f74206574697277,%rax
  40282a:	20 74 6f 
  40282d:	48 89 43 18          	mov    %rax,0x18(%rbx)
  402831:	48 b8 20 74 68 65 20 	movabs $0x7475412065687420,%rax
  402838:	41 75 74 
  40283b:	48 89 43 20          	mov    %rax,0x20(%rbx)
  40283f:	48 b8 6f 6c 61 62 20 	movabs $0x7265732062616c6f,%rax
  402846:	73 65 72 
  402849:	48 89 43 28          	mov    %rax,0x28(%rbx)
  40284d:	c7 43 30 76 65 72 00 	movl   $0x726576,0x30(%rbx)
  402854:	89 ef                	mov    %ebp,%edi
  402856:	e8 f5 e4 ff ff       	callq  400d50 <close@plt>
  40285b:	b8 ff ff ff ff       	mov    $0xffffffff,%eax
  402860:	e9 1a 03 00 00       	jmpq   402b7f <submitr+0x761>
  402865:	89 ee                	mov    %ebp,%esi
  402867:	48 8d 7c 24 30       	lea    0x30(%rsp),%rdi
  40286c:	e8 cf f8 ff ff       	callq  402140 <rio_readinitb>
  402871:	ba 00 20 00 00       	mov    $0x2000,%edx
  402876:	48 8d b4 24 40 20 00 	lea    0x2040(%rsp),%rsi
  40287d:	00 
  40287e:	48 8d 7c 24 30       	lea    0x30(%rsp),%rdi
  402883:	e8 df f9 ff ff       	callq  402267 <rio_readlineb>
  402888:	48 85 c0             	test   %rax,%rax
  40288b:	7f 7f                	jg     40290c <submitr+0x4ee>
  40288d:	48 b8 45 72 72 6f 72 	movabs $0x43203a726f727245,%rax
  402894:	3a 20 43 
  402897:	48 89 03             	mov    %rax,(%rbx)
  40289a:	48 b8 6c 69 65 6e 74 	movabs $0x6e7520746e65696c,%rax
  4028a1:	20 75 6e 
  4028a4:	48 89 43 08          	mov    %rax,0x8(%rbx)
  4028a8:	48 b8 61 62 6c 65 20 	movabs $0x206f7420656c6261,%rax
  4028af:	74 6f 20 
  4028b2:	48 89 43 10          	mov    %rax,0x10(%rbx)
  4028b6:	48 b8 72 65 61 64 20 	movabs $0x7269662064616572,%rax
  4028bd:	66 69 72 
  4028c0:	48 89 43 18          	mov    %rax,0x18(%rbx)
  4028c4:	48 b8 73 74 20 68 65 	movabs $0x6564616568207473,%rax
  4028cb:	61 64 65 
  4028ce:	48 89 43 20          	mov    %rax,0x20(%rbx)
  4028d2:	48 b8 72 20 66 72 6f 	movabs $0x41206d6f72662072,%rax
  4028d9:	6d 20 41 
  4028dc:	48 89 43 28          	mov    %rax,0x28(%rbx)
  4028e0:	48 b8 75 74 6f 6c 61 	movabs $0x732062616c6f7475,%rax
  4028e7:	62 20 73 
  4028ea:	48 89 43 30          	mov    %rax,0x30(%rbx)
  4028ee:	c7 43 38 65 72 76 65 	movl   $0x65767265,0x38(%rbx)
  4028f5:	66 c7 43 3c 72 00    	movw   $0x72,0x3c(%rbx)
  4028fb:	89 ef                	mov    %ebp,%edi
  4028fd:	e8 4e e4 ff ff       	callq  400d50 <close@plt>
  402902:	b8 ff ff ff ff       	mov    $0xffffffff,%eax
  402907:	e9 73 02 00 00       	jmpq   402b7f <submitr+0x761>
  40290c:	4c 8d 84 24 40 80 00 	lea    0x8040(%rsp),%r8
  402913:	00 
  402914:	48 8d 4c 24 1c       	lea    0x1c(%rsp),%rcx
  402919:	48 8d 94 24 40 60 00 	lea    0x6040(%rsp),%rdx
  402920:	00 
  402921:	be 9f 37 40 00       	mov    $0x40379f,%esi
  402926:	48 8d bc 24 40 20 00 	lea    0x2040(%rsp),%rdi
  40292d:	00 
  40292e:	b8 00 00 00 00       	mov    $0x0,%eax
  402933:	e8 c8 e4 ff ff       	callq  400e00 <__isoc99_sscanf@plt>
  402938:	e9 92 00 00 00       	jmpq   4029cf <submitr+0x5b1>
  40293d:	ba 00 20 00 00       	mov    $0x2000,%edx
  402942:	48 8d b4 24 40 20 00 	lea    0x2040(%rsp),%rsi
  402949:	00 
  40294a:	48 8d 7c 24 30       	lea    0x30(%rsp),%rdi
  40294f:	e8 13 f9 ff ff       	callq  402267 <rio_readlineb>
  402954:	48 85 c0             	test   %rax,%rax
  402957:	7f 76                	jg     4029cf <submitr+0x5b1>
  402959:	48 b8 45 72 72 6f 72 	movabs $0x43203a726f727245,%rax
  402960:	3a 20 43 
  402963:	48 89 03             	mov    %rax,(%rbx)
  402966:	48 b8 6c 69 65 6e 74 	movabs $0x6e7520746e65696c,%rax
  40296d:	20 75 6e 
  402970:	48 89 43 08          	mov    %rax,0x8(%rbx)
  402974:	48 b8 61 62 6c 65 20 	movabs $0x206f7420656c6261,%rax
  40297b:	74 6f 20 
  40297e:	48 89 43 10          	mov    %rax,0x10(%rbx)
  402982:	48 b8 72 65 61 64 20 	movabs $0x6165682064616572,%rax
  402989:	68 65 61 
  40298c:	48 89 43 18          	mov    %rax,0x18(%rbx)
  402990:	48 b8 64 65 72 73 20 	movabs $0x6f72662073726564,%rax
  402997:	66 72 6f 
  40299a:	48 89 43 20          	mov    %rax,0x20(%rbx)
  40299e:	48 b8 6d 20 41 75 74 	movabs $0x616c6f747541206d,%rax
  4029a5:	6f 6c 61 
  4029a8:	48 89 43 28          	mov    %rax,0x28(%rbx)
  4029ac:	48 b8 62 20 73 65 72 	movabs $0x7265767265732062,%rax
  4029b3:	76 65 72 
  4029b6:	48 89 43 30          	mov    %rax,0x30(%rbx)
  4029ba:	c6 43 38 00          	movb   $0x0,0x38(%rbx)
  4029be:	89 ef                	mov    %ebp,%edi
  4029c0:	e8 8b e3 ff ff       	callq  400d50 <close@plt>
  4029c5:	b8 ff ff ff ff       	mov    $0xffffffff,%eax
  4029ca:	e9 b0 01 00 00       	jmpq   402b7f <submitr+0x761>
  4029cf:	0f b6 94 24 40 20 00 	movzbl 0x2040(%rsp),%edx
  4029d6:	00 
  4029d7:	b8 0d 00 00 00       	mov    $0xd,%eax
  4029dc:	29 d0                	sub    %edx,%eax
  4029de:	75 1b                	jne    4029fb <submitr+0x5dd>
  4029e0:	0f b6 94 24 41 20 00 	movzbl 0x2041(%rsp),%edx
  4029e7:	00 
  4029e8:	b8 0a 00 00 00       	mov    $0xa,%eax
  4029ed:	29 d0                	sub    %edx,%eax
  4029ef:	75 0a                	jne    4029fb <submitr+0x5dd>
  4029f1:	0f b6 84 24 42 20 00 	movzbl 0x2042(%rsp),%eax
  4029f8:	00 
  4029f9:	f7 d8                	neg    %eax
  4029fb:	85 c0                	test   %eax,%eax
  4029fd:	0f 85 3a ff ff ff    	jne    40293d <submitr+0x51f>
  402a03:	ba 00 20 00 00       	mov    $0x2000,%edx
  402a08:	48 8d b4 24 40 20 00 	lea    0x2040(%rsp),%rsi
  402a0f:	00 
  402a10:	48 8d 7c 24 30       	lea    0x30(%rsp),%rdi
  402a15:	e8 4d f8 ff ff       	callq  402267 <rio_readlineb>
  402a1a:	48 85 c0             	test   %rax,%rax
  402a1d:	0f 8f 80 00 00 00    	jg     402aa3 <submitr+0x685>
  402a23:	48 b8 45 72 72 6f 72 	movabs $0x43203a726f727245,%rax
  402a2a:	3a 20 43 
  402a2d:	48 89 03             	mov    %rax,(%rbx)
  402a30:	48 b8 6c 69 65 6e 74 	movabs $0x6e7520746e65696c,%rax
  402a37:	20 75 6e 
  402a3a:	48 89 43 08          	mov    %rax,0x8(%rbx)
  402a3e:	48 b8 61 62 6c 65 20 	movabs $0x206f7420656c6261,%rax
  402a45:	74 6f 20 
  402a48:	48 89 43 10          	mov    %rax,0x10(%rbx)
  402a4c:	48 b8 72 65 61 64 20 	movabs $0x6174732064616572,%rax
  402a53:	73 74 61 
  402a56:	48 89 43 18          	mov    %rax,0x18(%rbx)
  402a5a:	48 b8 74 75 73 20 6d 	movabs $0x7373656d20737574,%rax
  402a61:	65 73 73 
  402a64:	48 89 43 20          	mov    %rax,0x20(%rbx)
  402a68:	48 b8 61 67 65 20 66 	movabs $0x6d6f726620656761,%rax
  402a6f:	72 6f 6d 
  402a72:	48 89 43 28          	mov    %rax,0x28(%rbx)
  402a76:	48 b8 20 41 75 74 6f 	movabs $0x62616c6f74754120,%rax
  402a7d:	6c 61 62 
  402a80:	48 89 43 30          	mov    %rax,0x30(%rbx)
  402a84:	48 b8 20 73 65 72 76 	movabs $0x72657672657320,%rax
  402a8b:	65 72 00 
  402a8e:	48 89 43 38          	mov    %rax,0x38(%rbx)
  402a92:	89 ef                	mov    %ebp,%edi
  402a94:	e8 b7 e2 ff ff       	callq  400d50 <close@plt>
  402a99:	b8 ff ff ff ff       	mov    $0xffffffff,%eax
  402a9e:	e9 dc 00 00 00       	jmpq   402b7f <submitr+0x761>
  402aa3:	44 8b 44 24 1c       	mov    0x1c(%rsp),%r8d
  402aa8:	41 81 f8 c8 00 00 00 	cmp    $0xc8,%r8d
  402aaf:	74 37                	je     402ae8 <submitr+0x6ca>
  402ab1:	4c 8d 8c 24 40 80 00 	lea    0x8040(%rsp),%r9
  402ab8:	00 
  402ab9:	b9 68 37 40 00       	mov    $0x403768,%ecx
  402abe:	48 c7 c2 ff ff ff ff 	mov    $0xffffffffffffffff,%rdx
  402ac5:	be 01 00 00 00       	mov    $0x1,%esi
  402aca:	48 89 df             	mov    %rbx,%rdi
  402acd:	b8 00 00 00 00       	mov    $0x0,%eax
  402ad2:	e8 c9 e3 ff ff       	callq  400ea0 <__sprintf_chk@plt>
  402ad7:	89 ef                	mov    %ebp,%edi
  402ad9:	e8 72 e2 ff ff       	callq  400d50 <close@plt>
  402ade:	b8 ff ff ff ff       	mov    $0xffffffff,%eax
  402ae3:	e9 97 00 00 00       	jmpq   402b7f <submitr+0x761>
  402ae8:	48 8d b4 24 40 20 00 	lea    0x2040(%rsp),%rsi
  402aef:	00 
  402af0:	48 89 df             	mov    %rbx,%rdi
  402af3:	e8 e8 e1 ff ff       	callq  400ce0 <strcpy@plt>
  402af8:	89 ef                	mov    %ebp,%edi
  402afa:	e8 51 e2 ff ff       	callq  400d50 <close@plt>
  402aff:	0f b6 03             	movzbl (%rbx),%eax
  402b02:	ba 4f 00 00 00       	mov    $0x4f,%edx
  402b07:	29 c2                	sub    %eax,%edx
  402b09:	75 22                	jne    402b2d <submitr+0x70f>
  402b0b:	0f b6 4b 01          	movzbl 0x1(%rbx),%ecx
  402b0f:	b8 4b 00 00 00       	mov    $0x4b,%eax
  402b14:	29 c8                	sub    %ecx,%eax
  402b16:	75 17                	jne    402b2f <submitr+0x711>
  402b18:	0f b6 4b 02          	movzbl 0x2(%rbx),%ecx
  402b1c:	b8 0a 00 00 00       	mov    $0xa,%eax
  402b21:	29 c8                	sub    %ecx,%eax
  402b23:	75 0a                	jne    402b2f <submitr+0x711>
  402b25:	0f b6 43 03          	movzbl 0x3(%rbx),%eax
  402b29:	f7 d8                	neg    %eax
  402b2b:	eb 02                	jmp    402b2f <submitr+0x711>
  402b2d:	89 d0                	mov    %edx,%eax
  402b2f:	85 c0                	test   %eax,%eax
  402b31:	74 40                	je     402b73 <submitr+0x755>
  402b33:	bf b0 37 40 00       	mov    $0x4037b0,%edi
  402b38:	b9 05 00 00 00       	mov    $0x5,%ecx
  402b3d:	48 89 de             	mov    %rbx,%rsi
  402b40:	f3 a6                	repz cmpsb %es:(%rdi),%ds:(%rsi)
  402b42:	0f 97 c0             	seta   %al
  402b45:	0f 92 c1             	setb   %cl
  402b48:	29 c8                	sub    %ecx,%eax
  402b4a:	0f be c0             	movsbl %al,%eax
  402b4d:	85 c0                	test   %eax,%eax
  402b4f:	74 2e                	je     402b7f <submitr+0x761>
  402b51:	85 d2                	test   %edx,%edx
  402b53:	75 13                	jne    402b68 <submitr+0x74a>
  402b55:	0f b6 43 01          	movzbl 0x1(%rbx),%eax
  402b59:	ba 4b 00 00 00       	mov    $0x4b,%edx
  402b5e:	29 c2                	sub    %eax,%edx
  402b60:	75 06                	jne    402b68 <submitr+0x74a>
  402b62:	0f b6 53 02          	movzbl 0x2(%rbx),%edx
  402b66:	f7 da                	neg    %edx
  402b68:	85 d2                	test   %edx,%edx
  402b6a:	75 0e                	jne    402b7a <submitr+0x75c>
  402b6c:	b8 00 00 00 00       	mov    $0x0,%eax
  402b71:	eb 0c                	jmp    402b7f <submitr+0x761>
  402b73:	b8 00 00 00 00       	mov    $0x0,%eax
  402b78:	eb 05                	jmp    402b7f <submitr+0x761>
  402b7a:	b8 ff ff ff ff       	mov    $0xffffffff,%eax
  402b7f:	48 8b 9c 24 48 a0 00 	mov    0xa048(%rsp),%rbx
  402b86:	00 
  402b87:	64 48 33 1c 25 28 00 	xor    %fs:0x28,%rbx
  402b8e:	00 00 
  402b90:	74 05                	je     402b97 <submitr+0x779>
  402b92:	e8 79 e1 ff ff       	callq  400d10 <__stack_chk_fail@plt>
  402b97:	48 81 c4 58 a0 00 00 	add    $0xa058,%rsp
  402b9e:	5b                   	pop    %rbx
  402b9f:	5d                   	pop    %rbp
  402ba0:	41 5c                	pop    %r12
  402ba2:	41 5d                	pop    %r13
  402ba4:	41 5e                	pop    %r14
  402ba6:	41 5f                	pop    %r15
  402ba8:	c3                   	retq   

0000000000402ba9 <init_timeout>:
  402ba9:	85 ff                	test   %edi,%edi
  402bab:	74 23                	je     402bd0 <init_timeout+0x27>
  402bad:	53                   	push   %rbx
  402bae:	89 fb                	mov    %edi,%ebx
  402bb0:	85 ff                	test   %edi,%edi
  402bb2:	79 05                	jns    402bb9 <init_timeout+0x10>
  402bb4:	bb 00 00 00 00       	mov    $0x0,%ebx
  402bb9:	be 52 21 40 00       	mov    $0x402152,%esi
  402bbe:	bf 0e 00 00 00       	mov    $0xe,%edi
  402bc3:	e8 b8 e1 ff ff       	callq  400d80 <signal@plt>
  402bc8:	89 df                	mov    %ebx,%edi
  402bca:	e8 71 e1 ff ff       	callq  400d40 <alarm@plt>
  402bcf:	5b                   	pop    %rbx
  402bd0:	f3 c3                	repz retq 

0000000000402bd2 <init_driver>:
  402bd2:	55                   	push   %rbp
  402bd3:	53                   	push   %rbx
  402bd4:	48 83 ec 28          	sub    $0x28,%rsp
  402bd8:	48 89 fd             	mov    %rdi,%rbp
  402bdb:	64 48 8b 04 25 28 00 	mov    %fs:0x28,%rax
  402be2:	00 00 
  402be4:	48 89 44 24 18       	mov    %rax,0x18(%rsp)
  402be9:	31 c0                	xor    %eax,%eax
  402beb:	be 01 00 00 00       	mov    $0x1,%esi
  402bf0:	bf 0d 00 00 00       	mov    $0xd,%edi
  402bf5:	e8 86 e1 ff ff       	callq  400d80 <signal@plt>
  402bfa:	be 01 00 00 00       	mov    $0x1,%esi
  402bff:	bf 1d 00 00 00       	mov    $0x1d,%edi
  402c04:	e8 77 e1 ff ff       	callq  400d80 <signal@plt>
  402c09:	be 01 00 00 00       	mov    $0x1,%esi
  402c0e:	bf 1d 00 00 00       	mov    $0x1d,%edi
  402c13:	e8 68 e1 ff ff       	callq  400d80 <signal@plt>
  402c18:	ba 00 00 00 00       	mov    $0x0,%edx
  402c1d:	be 01 00 00 00       	mov    $0x1,%esi
  402c22:	bf 02 00 00 00       	mov    $0x2,%edi
  402c27:	e8 84 e2 ff ff       	callq  400eb0 <socket@plt>
  402c2c:	85 c0                	test   %eax,%eax
  402c2e:	79 4f                	jns    402c7f <init_driver+0xad>
  402c30:	48 b8 45 72 72 6f 72 	movabs $0x43203a726f727245,%rax
  402c37:	3a 20 43 
  402c3a:	48 89 45 00          	mov    %rax,0x0(%rbp)
  402c3e:	48 b8 6c 69 65 6e 74 	movabs $0x6e7520746e65696c,%rax
  402c45:	20 75 6e 
  402c48:	48 89 45 08          	mov    %rax,0x8(%rbp)
  402c4c:	48 b8 61 62 6c 65 20 	movabs $0x206f7420656c6261,%rax
  402c53:	74 6f 20 
  402c56:	48 89 45 10          	mov    %rax,0x10(%rbp)
  402c5a:	48 b8 63 72 65 61 74 	movabs $0x7320657461657263,%rax
  402c61:	65 20 73 
  402c64:	48 89 45 18          	mov    %rax,0x18(%rbp)
  402c68:	c7 45 20 6f 63 6b 65 	movl   $0x656b636f,0x20(%rbp)
  402c6f:	66 c7 45 24 74 00    	movw   $0x74,0x24(%rbp)
  402c75:	b8 ff ff ff ff       	mov    $0xffffffff,%eax
  402c7a:	e9 2a 01 00 00       	jmpq   402da9 <init_driver+0x1d7>
  402c7f:	89 c3                	mov    %eax,%ebx
  402c81:	bf d5 32 40 00       	mov    $0x4032d5,%edi
  402c86:	e8 05 e1 ff ff       	callq  400d90 <gethostbyname@plt>
  402c8b:	48 85 c0             	test   %rax,%rax
  402c8e:	75 68                	jne    402cf8 <init_driver+0x126>
  402c90:	48 b8 45 72 72 6f 72 	movabs $0x44203a726f727245,%rax
  402c97:	3a 20 44 
  402c9a:	48 89 45 00          	mov    %rax,0x0(%rbp)
  402c9e:	48 b8 4e 53 20 69 73 	movabs $0x6e7520736920534e,%rax
  402ca5:	20 75 6e 
  402ca8:	48 89 45 08          	mov    %rax,0x8(%rbp)
  402cac:	48 b8 61 62 6c 65 20 	movabs $0x206f7420656c6261,%rax
  402cb3:	74 6f 20 
  402cb6:	48 89 45 10          	mov    %rax,0x10(%rbp)
  402cba:	48 b8 72 65 73 6f 6c 	movabs $0x2065766c6f736572,%rax
  402cc1:	76 65 20 
  402cc4:	48 89 45 18          	mov    %rax,0x18(%rbp)
  402cc8:	48 b8 73 65 72 76 65 	movabs $0x6120726576726573,%rax
  402ccf:	72 20 61 
  402cd2:	48 89 45 20          	mov    %rax,0x20(%rbp)
  402cd6:	c7 45 28 64 64 72 65 	movl   $0x65726464,0x28(%rbp)
  402cdd:	66 c7 45 2c 73 73    	movw   $0x7373,0x2c(%rbp)
  402ce3:	c6 45 2e 00          	movb   $0x0,0x2e(%rbp)
  402ce7:	89 df                	mov    %ebx,%edi
  402ce9:	e8 62 e0 ff ff       	callq  400d50 <close@plt>
  402cee:	b8 ff ff ff ff       	mov    $0xffffffff,%eax
  402cf3:	e9 b1 00 00 00       	jmpq   402da9 <init_driver+0x1d7>
  402cf8:	48 c7 04 24 00 00 00 	movq   $0x0,(%rsp)
  402cff:	00 
  402d00:	48 c7 44 24 08 00 00 	movq   $0x0,0x8(%rsp)
  402d07:	00 00 
  402d09:	66 c7 04 24 02 00    	movw   $0x2,(%rsp)
  402d0f:	48 63 50 14          	movslq 0x14(%rax),%rdx
  402d13:	48 8b 40 18          	mov    0x18(%rax),%rax
  402d17:	48 8b 30             	mov    (%rax),%rsi
  402d1a:	48 8d 7c 24 04       	lea    0x4(%rsp),%rdi
  402d1f:	b9 0c 00 00 00       	mov    $0xc,%ecx
  402d24:	e8 77 e0 ff ff       	callq  400da0 <__memmove_chk@plt>
  402d29:	66 c7 44 24 02 00 50 	movw   $0x5000,0x2(%rsp)
  402d30:	ba 10 00 00 00       	mov    $0x10,%edx
  402d35:	48 89 e6             	mov    %rsp,%rsi
  402d38:	89 df                	mov    %ebx,%edi
  402d3a:	e8 41 e1 ff ff       	callq  400e80 <connect@plt>
  402d3f:	85 c0                	test   %eax,%eax
  402d41:	79 50                	jns    402d93 <init_driver+0x1c1>
  402d43:	48 b8 45 72 72 6f 72 	movabs $0x55203a726f727245,%rax
  402d4a:	3a 20 55 
  402d4d:	48 89 45 00          	mov    %rax,0x0(%rbp)
  402d51:	48 b8 6e 61 62 6c 65 	movabs $0x6f7420656c62616e,%rax
  402d58:	20 74 6f 
  402d5b:	48 89 45 08          	mov    %rax,0x8(%rbp)
  402d5f:	48 b8 20 63 6f 6e 6e 	movabs $0x7463656e6e6f6320,%rax
  402d66:	65 63 74 
  402d69:	48 89 45 10          	mov    %rax,0x10(%rbp)
  402d6d:	48 b8 20 74 6f 20 73 	movabs $0x76726573206f7420,%rax
  402d74:	65 72 76 
  402d77:	48 89 45 18          	mov    %rax,0x18(%rbp)
  402d7b:	66 c7 45 20 65 72    	movw   $0x7265,0x20(%rbp)
  402d81:	c6 45 22 00          	movb   $0x0,0x22(%rbp)
  402d85:	89 df                	mov    %ebx,%edi
  402d87:	e8 c4 df ff ff       	callq  400d50 <close@plt>
  402d8c:	b8 ff ff ff ff       	mov    $0xffffffff,%eax
  402d91:	eb 16                	jmp    402da9 <init_driver+0x1d7>
  402d93:	89 df                	mov    %ebx,%edi
  402d95:	e8 b6 df ff ff       	callq  400d50 <close@plt>
  402d9a:	66 c7 45 00 4f 4b    	movw   $0x4b4f,0x0(%rbp)
  402da0:	c6 45 02 00          	movb   $0x0,0x2(%rbp)
  402da4:	b8 00 00 00 00       	mov    $0x0,%eax
  402da9:	48 8b 4c 24 18       	mov    0x18(%rsp),%rcx
  402dae:	64 48 33 0c 25 28 00 	xor    %fs:0x28,%rcx
  402db5:	00 00 
  402db7:	74 05                	je     402dbe <init_driver+0x1ec>
  402db9:	e8 52 df ff ff       	callq  400d10 <__stack_chk_fail@plt>
  402dbe:	48 83 c4 28          	add    $0x28,%rsp
  402dc2:	5b                   	pop    %rbx
  402dc3:	5d                   	pop    %rbp
  402dc4:	c3                   	retq   

0000000000402dc5 <driver_post>:
  402dc5:	53                   	push   %rbx
  402dc6:	4c 89 cb             	mov    %r9,%rbx
  402dc9:	45 85 c0             	test   %r8d,%r8d
  402dcc:	74 27                	je     402df5 <driver_post+0x30>
  402dce:	48 89 ca             	mov    %rcx,%rdx
  402dd1:	be b5 37 40 00       	mov    $0x4037b5,%esi
  402dd6:	bf 01 00 00 00       	mov    $0x1,%edi
  402ddb:	b8 00 00 00 00       	mov    $0x0,%eax
  402de0:	e8 3b e0 ff ff       	callq  400e20 <__printf_chk@plt>
  402de5:	66 c7 03 4f 4b       	movw   $0x4b4f,(%rbx)
  402dea:	c6 43 02 00          	movb   $0x0,0x2(%rbx)
  402dee:	b8 00 00 00 00       	mov    $0x0,%eax
  402df3:	eb 3f                	jmp    402e34 <driver_post+0x6f>
  402df5:	48 85 ff             	test   %rdi,%rdi
  402df8:	74 2c                	je     402e26 <driver_post+0x61>
  402dfa:	80 3f 00             	cmpb   $0x0,(%rdi)
  402dfd:	74 27                	je     402e26 <driver_post+0x61>
  402dff:	48 83 ec 08          	sub    $0x8,%rsp
  402e03:	41 51                	push   %r9
  402e05:	49 89 c9             	mov    %rcx,%r9
  402e08:	49 89 d0             	mov    %rdx,%r8
  402e0b:	48 89 f9             	mov    %rdi,%rcx
  402e0e:	48 89 f2             	mov    %rsi,%rdx
  402e11:	be 50 00 00 00       	mov    $0x50,%esi
  402e16:	bf d5 32 40 00       	mov    $0x4032d5,%edi
  402e1b:	e8 fe f5 ff ff       	callq  40241e <submitr>
  402e20:	48 83 c4 10          	add    $0x10,%rsp
  402e24:	eb 0e                	jmp    402e34 <driver_post+0x6f>
  402e26:	66 c7 03 4f 4b       	movw   $0x4b4f,(%rbx)
  402e2b:	c6 43 02 00          	movb   $0x0,0x2(%rbx)
  402e2f:	b8 00 00 00 00       	mov    $0x0,%eax
  402e34:	5b                   	pop    %rbx
  402e35:	c3                   	retq   

0000000000402e36 <check>:
  402e36:	89 f8                	mov    %edi,%eax
  402e38:	c1 e8 1c             	shr    $0x1c,%eax
  402e3b:	85 c0                	test   %eax,%eax
  402e3d:	74 1d                	je     402e5c <check+0x26>
  402e3f:	b9 00 00 00 00       	mov    $0x0,%ecx
  402e44:	eb 0b                	jmp    402e51 <check+0x1b>
  402e46:	89 f8                	mov    %edi,%eax
  402e48:	d3 e8                	shr    %cl,%eax
  402e4a:	3c 0a                	cmp    $0xa,%al
  402e4c:	74 14                	je     402e62 <check+0x2c>
  402e4e:	83 c1 08             	add    $0x8,%ecx
  402e51:	83 f9 1f             	cmp    $0x1f,%ecx
  402e54:	7e f0                	jle    402e46 <check+0x10>
  402e56:	b8 01 00 00 00       	mov    $0x1,%eax
  402e5b:	c3                   	retq   
  402e5c:	b8 00 00 00 00       	mov    $0x0,%eax
  402e61:	c3                   	retq   
  402e62:	b8 00 00 00 00       	mov    $0x0,%eax
  402e67:	c3                   	retq   

0000000000402e68 <gencookie>:
  402e68:	53                   	push   %rbx
  402e69:	83 c7 01             	add    $0x1,%edi
  402e6c:	e8 4f de ff ff       	callq  400cc0 <srandom@plt>
  402e71:	e8 6a df ff ff       	callq  400de0 <random@plt>
  402e76:	89 c3                	mov    %eax,%ebx
  402e78:	89 c7                	mov    %eax,%edi
  402e7a:	e8 b7 ff ff ff       	callq  402e36 <check>
  402e7f:	85 c0                	test   %eax,%eax
  402e81:	74 ee                	je     402e71 <gencookie+0x9>
  402e83:	89 d8                	mov    %ebx,%eax
  402e85:	5b                   	pop    %rbx
  402e86:	c3                   	retq   
  402e87:	66 0f 1f 84 00 00 00 	nopw   0x0(%rax,%rax,1)
  402e8e:	00 00 

0000000000402e90 <__libc_csu_init>:
  402e90:	41 57                	push   %r15
  402e92:	41 56                	push   %r14
  402e94:	41 89 ff             	mov    %edi,%r15d
  402e97:	41 55                	push   %r13
  402e99:	41 54                	push   %r12
  402e9b:	4c 8d 25 5e 1f 20 00 	lea    0x201f5e(%rip),%r12        # 604e00 <__frame_dummy_init_array_entry>
  402ea2:	55                   	push   %rbp
  402ea3:	48 8d 2d 5e 1f 20 00 	lea    0x201f5e(%rip),%rbp        # 604e08 <__init_array_end>
  402eaa:	53                   	push   %rbx
  402eab:	49 89 f6             	mov    %rsi,%r14
  402eae:	49 89 d5             	mov    %rdx,%r13
  402eb1:	4c 29 e5             	sub    %r12,%rbp
  402eb4:	48 83 ec 08          	sub    $0x8,%rsp
  402eb8:	48 c1 fd 03          	sar    $0x3,%rbp
  402ebc:	e8 a7 dd ff ff       	callq  400c68 <_init>
  402ec1:	48 85 ed             	test   %rbp,%rbp
  402ec4:	74 20                	je     402ee6 <__libc_csu_init+0x56>
  402ec6:	31 db                	xor    %ebx,%ebx
  402ec8:	0f 1f 84 00 00 00 00 	nopl   0x0(%rax,%rax,1)
  402ecf:	00 
  402ed0:	4c 89 ea             	mov    %r13,%rdx
  402ed3:	4c 89 f6             	mov    %r14,%rsi
  402ed6:	44 89 ff             	mov    %r15d,%edi
  402ed9:	41 ff 14 dc          	callq  *(%r12,%rbx,8)
  402edd:	48 83 c3 01          	add    $0x1,%rbx
  402ee1:	48 39 eb             	cmp    %rbp,%rbx
  402ee4:	75 ea                	jne    402ed0 <__libc_csu_init+0x40>
  402ee6:	48 83 c4 08          	add    $0x8,%rsp
  402eea:	5b                   	pop    %rbx
  402eeb:	5d                   	pop    %rbp
  402eec:	41 5c                	pop    %r12
  402eee:	41 5d                	pop    %r13
  402ef0:	41 5e                	pop    %r14
  402ef2:	41 5f                	pop    %r15
  402ef4:	c3                   	retq   
  402ef5:	90                   	nop
  402ef6:	66 2e 0f 1f 84 00 00 	nopw   %cs:0x0(%rax,%rax,1)
  402efd:	00 00 00 

0000000000402f00 <__libc_csu_fini>:
  402f00:	f3 c3                	repz retq 

Disassembly of section .fini:

0000000000402f04 <_fini>:
  402f04:	48 83 ec 08          	sub    $0x8,%rsp
  402f08:	48 83 c4 08          	add    $0x8,%rsp
  402f0c:	c3                   	retq   
